
cjpegP1:     file format ss-coff-little

Disassembly of section .text:

00400140 <__start>:
  400140:	28 00 00 00 	lw $16,0($29)
  400144:	00 00 10 1d 
  400148:	a2 00 00 00 	lui $28,4097
  40014c:	01 10 1c 00 
  400150:	43 00 00 00 	addiu $28,$28,-14176
  400154:	a0 c8 1c 1c 
  400158:	43 00 00 00 	addiu $17,$29,4
  40015c:	04 00 11 1d 
  400160:	43 00 00 00 	addiu $3,$17,4
  400164:	04 00 03 11 
  400168:	55 00 00 00 	sll $2,$16,0x2
  40016c:	02 02 10 00 
  400170:	42 00 00 00 	addu $3,$3,$2
  400174:	00 03 02 03 
  400178:	42 00 00 00 	addu $18,$0,$3
  40017c:	00 12 03 00 
  400180:	34 00 00 00 	sw $18,-31436($28)
  400184:	34 85 12 1c 
  400188:	43 00 00 00 	addiu $29,$29,-24
  40018c:	e8 ff 1d 1d 
  400190:	42 00 00 00 	addu $4,$0,$16
  400194:	00 04 10 00 
  400198:	42 00 00 00 	addu $5,$0,$17
  40019c:	00 05 11 00 
  4001a0:	42 00 00 00 	addu $6,$0,$18
  4001a4:	00 06 12 00 
  4001a8:	02 00 00 00 	jal 4213f0 <__libc_init>
  4001ac:	fc 84 10 00 
  4001b0:	34 00 00 00 	sw $0,-31440($28)
  4001b4:	30 85 00 1c 
  4001b8:	42 00 00 00 	addu $4,$0,$16
  4001bc:	00 04 10 00 
  4001c0:	42 00 00 00 	addu $5,$0,$17
  4001c4:	00 05 11 00 
  4001c8:	42 00 00 00 	addu $6,$0,$18
  4001cc:	00 06 12 00 
  4001d0:	02 00 00 00 	jal 4016a0 <main>
  4001d4:	a8 05 10 00 
  4001d8:	42 00 00 00 	addu $4,$0,$2
  4001dc:	00 04 02 00 
  4001e0:	02 00 00 00 	jal 421420 <exit>
  4001e4:	08 85 10 00 
	...

004001f0 <__it_handle>:
  4001f0:	28 00 00 00 	lw $2,-32756($28)
  4001f4:	0c 80 02 1c 
  4001f8:	43 00 00 00 	addiu $2,$2,1
  4001fc:	01 00 02 02 
  400200:	34 00 00 00 	sw $2,-32756($28)
  400204:	0c 80 02 1c 
  400208:	28 00 00 00 	lw $2,-32756($28)
  40020c:	0c 80 02 1c 
  400210:	28 00 00 00 	lw $5,-32756($28)
  400214:	0c 80 05 1c 
  400218:	43 00 00 00 	addiu $29,$29,-24
  40021c:	e8 ff 1d 1d 
  400220:	a2 00 00 00 	lui $4,4096
  400224:	00 10 04 00 
  400228:	43 00 00 00 	addiu $4,$4,1544
  40022c:	08 06 04 04 
  400230:	34 00 00 00 	sw $31,16($29)
  400234:	10 00 1f 1d 
  400238:	02 00 00 00 	jal 421600 <printf>
  40023c:	80 85 10 00 
  400240:	28 00 00 00 	lw $4,-32428($28)
  400244:	54 81 04 1c 
  400248:	02 00 00 00 	jal 421670 <fflush>
  40024c:	9c 85 10 00 
  400250:	28 00 00 00 	lw $31,16($29)
  400254:	10 00 1f 1d 
  400258:	43 00 00 00 	addiu $29,$29,24
  40025c:	18 00 1d 1d 
  400260:	03 00 00 00 	jr $31
  400264:	00 00 00 1f 

00400268 <init_IT>:
  400268:	a2 00 00 00 	lui $27,65
  40026c:	41 00 1b 00 
  400270:	43 00 00 00 	addiu $27,$27,-24016
  400274:	30 a2 1b 1b 
  400278:	34 00 00 00 	sw $27,-31424($28)
  40027c:	40 85 1b 1c 
  400280:	28 00 00 00 	lw $6,-31424($28)
  400284:	40 85 06 1c 
  400288:	a2 00 00 00 	lui $7,48
  40028c:	30 00 07 00 
  400290:	4f 00 00 00 	andi $2,$6,3
  400294:	03 00 02 06 
  400298:	05 00 00 00 	beq $2,$0,400348 <init_IT+0xe0>
  40029c:	2a 00 00 02 
  4002a0:	43 00 00 00 	addiu $8,$6,1024
  4002a4:	00 04 08 06 
  4002a8:	2c 00 00 00 	lwl $2,3($6)
  4002ac:	03 00 02 06 
  4002b0:	2d 00 00 00 	lwr $2,0($6)
  4002b4:	00 00 02 06 
  4002b8:	2c 00 00 00 	lwl $3,7($6)
  4002bc:	07 00 03 06 
  4002c0:	2d 00 00 00 	lwr $3,4($6)
  4002c4:	04 00 03 06 
  4002c8:	2c 00 00 00 	lwl $4,11($6)
  4002cc:	0b 00 04 06 
  4002d0:	2d 00 00 00 	lwr $4,8($6)
  4002d4:	08 00 04 06 
  4002d8:	2c 00 00 00 	lwl $5,15($6)
  4002dc:	0f 00 05 06 
  4002e0:	2d 00 00 00 	lwr $5,12($6)
  4002e4:	0c 00 05 06 
  4002e8:	39 00 00 00 	swl $2,3($7)
  4002ec:	03 00 02 07 
  4002f0:	3a 00 00 00 	swr $2,0($7)
  4002f4:	00 00 02 07 
  4002f8:	39 00 00 00 	swl $3,7($7)
  4002fc:	07 00 03 07 
  400300:	3a 00 00 00 	swr $3,4($7)
  400304:	04 00 03 07 
  400308:	39 00 00 00 	swl $4,11($7)
  40030c:	0b 00 04 07 
  400310:	3a 00 00 00 	swr $4,8($7)
  400314:	08 00 04 07 
  400318:	39 00 00 00 	swl $5,15($7)
  40031c:	0f 00 05 07 
  400320:	3a 00 00 00 	swr $5,12($7)
  400324:	0c 00 05 07 
  400328:	43 00 00 00 	addiu $6,$6,16
  40032c:	10 00 06 06 
  400330:	43 00 00 00 	addiu $7,$7,16
  400334:	10 00 07 07 
  400338:	06 00 00 00 	bne $6,$8,4002a8 <init_IT+0x40>
  40033c:	da ff 08 06 
  400340:	01 00 00 00 	j 4003a8 <init_IT+0x140>
  400344:	ea 00 10 00 
  400348:	43 00 00 00 	addiu $8,$6,1024
  40034c:	00 04 08 06 
  400350:	28 00 00 00 	lw $2,0($6)
  400354:	00 00 02 06 
  400358:	28 00 00 00 	lw $3,4($6)
  40035c:	04 00 03 06 
  400360:	28 00 00 00 	lw $4,8($6)
  400364:	08 00 04 06 
  400368:	28 00 00 00 	lw $5,12($6)
  40036c:	0c 00 05 06 
  400370:	34 00 00 00 	sw $2,0($7)
  400374:	00 00 02 07 
  400378:	34 00 00 00 	sw $3,4($7)
  40037c:	04 00 03 07 
  400380:	34 00 00 00 	sw $4,8($7)
  400384:	08 00 04 07 
  400388:	34 00 00 00 	sw $5,12($7)
  40038c:	0c 00 05 07 
  400390:	43 00 00 00 	addiu $6,$6,16
  400394:	10 00 06 06 
  400398:	43 00 00 00 	addiu $7,$7,16
  40039c:	10 00 07 07 
  4003a0:	06 00 00 00 	bne $6,$8,400350 <init_IT+0xe8>
  4003a4:	ea ff 08 06 
  4003a8:	03 00 00 00 	jr $31
  4003ac:	00 00 00 1f 

004003b0 <select_file_type>:
  4003b0:	28 00 00 00 	lw $2,-31488($28)
  4003b4:	00 85 02 1c 
  4003b8:	43 00 00 00 	addiu $29,$29,-32
  4003bc:	e0 ff 1d 1d 
  4003c0:	34 00 00 00 	sw $17,20($29)
  4003c4:	14 00 11 1d 
  4003c8:	42 00 00 00 	addu $17,$0,$4
  4003cc:	00 11 04 00 
  4003d0:	34 00 00 00 	sw $18,24($29)
  4003d4:	18 00 12 1d 
  4003d8:	42 00 00 00 	addu $18,$0,$5
  4003dc:	00 12 05 00 
  4003e0:	34 00 00 00 	sw $31,28($29)
  4003e4:	1c 00 1f 1d 
  4003e8:	34 00 00 00 	sw $16,16($29)
  4003ec:	10 00 10 1d 
  4003f0:	05 00 00 00 	beq $2,$0,400408 <select_file_type+0x58>
  4003f4:	04 00 00 02 
  4003f8:	02 00 00 00 	jal 407770 <jinit_read_targa>
  4003fc:	dc 1d 10 00 
  400400:	01 00 00 00 	j 400600 <select_file_type+0x250>
  400404:	80 01 10 00 
  400408:	28 00 00 00 	lw $4,4($18)
  40040c:	04 00 04 12 
  400410:	28 00 00 00 	lw $2,8($18)
  400414:	08 00 02 12 
  400418:	5d 00 00 00 	sltu $2,$4,$2
  40041c:	00 02 02 04 
  400420:	05 00 00 00 	beq $2,$0,400448 <select_file_type+0x98>
  400424:	08 00 00 02 
  400428:	43 00 00 00 	addiu $2,$4,1
  40042c:	01 00 02 04 
  400430:	34 00 00 00 	sw $2,4($18)
  400434:	04 00 02 12 
  400438:	22 00 00 00 	lbu $16,0($4)
  40043c:	00 00 10 04 
  400440:	01 00 00 00 	j 400460 <select_file_type+0xb0>
  400444:	18 01 10 00 
  400448:	42 00 00 00 	addu $4,$0,$18
  40044c:	00 04 12 00 
  400450:	02 00 00 00 	jal 422de8 <__fillbf>
  400454:	7a 8b 10 00 
  400458:	42 00 00 00 	addu $16,$0,$2
  40045c:	00 10 02 00 
  400460:	43 00 00 00 	addiu $2,$0,-1
  400464:	ff ff 02 00 
  400468:	06 00 00 00 	bne $16,$2,4004a8 <select_file_type+0xf8>
  40046c:	0e 00 02 10 
  400470:	28 00 00 00 	lw $3,0($17)
  400474:	00 00 03 11 
  400478:	43 00 00 00 	addiu $2,$0,41
  40047c:	29 00 02 00 
  400480:	34 00 00 00 	sw $2,20($3)
  400484:	14 00 02 03 
  400488:	28 00 00 00 	lw $2,0($17)
  40048c:	00 00 02 11 
  400490:	28 00 00 00 	lw $2,0($2)
  400494:	00 00 02 02 
  400498:	42 00 00 00 	addu $4,$0,$17
  40049c:	00 04 11 00 
  4004a0:	04 00 00 00 	jalr $31,$2
  4004a4:	00 1f 00 02 
  4004a8:	42 00 00 00 	addu $4,$0,$16
  4004ac:	00 04 10 00 
  4004b0:	42 00 00 00 	addu $5,$0,$18
  4004b4:	00 05 12 00 
  4004b8:	02 00 00 00 	jal 4233f0 <ungetc>
  4004bc:	fc 8c 10 00 
  4004c0:	43 00 00 00 	addiu $3,$0,-1
  4004c4:	ff ff 03 00 
  4004c8:	06 00 00 00 	bne $2,$3,400508 <select_file_type+0x158>
  4004cc:	0e 00 03 02 
  4004d0:	28 00 00 00 	lw $3,0($17)
  4004d4:	00 00 03 11 
  4004d8:	43 00 00 00 	addiu $2,$0,1040
  4004dc:	10 04 02 00 
  4004e0:	34 00 00 00 	sw $2,20($3)
  4004e4:	14 00 02 03 
  4004e8:	28 00 00 00 	lw $2,0($17)
  4004ec:	00 00 02 11 
  4004f0:	28 00 00 00 	lw $2,0($2)
  4004f4:	00 00 02 02 
  4004f8:	42 00 00 00 	addu $4,$0,$17
  4004fc:	00 04 11 00 
  400500:	04 00 00 00 	jalr $31,$2
  400504:	00 1f 00 02 
  400508:	43 00 00 00 	addiu $2,$0,71
  40050c:	47 00 02 00 
  400510:	05 00 00 00 	beq $16,$2,400578 <select_file_type+0x1c8>
  400514:	18 00 02 10 
  400518:	5c 00 00 00 	slti $2,$16,72
  40051c:	48 00 02 10 
  400520:	05 00 00 00 	beq $2,$0,400548 <select_file_type+0x198>
  400524:	08 00 00 02 
  400528:	05 00 00 00 	beq $16,$0,4005a8 <select_file_type+0x1f8>
  40052c:	1e 00 00 10 
  400530:	43 00 00 00 	addiu $2,$0,66
  400534:	42 00 02 00 
  400538:	05 00 00 00 	beq $16,$2,400560 <select_file_type+0x1b0>
  40053c:	08 00 02 10 
  400540:	01 00 00 00 	j 4005c0 <select_file_type+0x210>
  400544:	70 01 10 00 
  400548:	43 00 00 00 	addiu $2,$0,80
  40054c:	50 00 02 00 
  400550:	05 00 00 00 	beq $16,$2,400590 <select_file_type+0x1e0>
  400554:	0e 00 02 10 
  400558:	01 00 00 00 	j 4005c0 <select_file_type+0x210>
  40055c:	70 01 10 00 
  400560:	42 00 00 00 	addu $4,$0,$17
  400564:	00 04 11 00 
  400568:	02 00 00 00 	jal 408ee8 <jinit_read_bmp>
  40056c:	ba 23 10 00 
  400570:	01 00 00 00 	j 400600 <select_file_type+0x250>
  400574:	80 01 10 00 
  400578:	42 00 00 00 	addu $4,$0,$17
  40057c:	00 04 11 00 
  400580:	02 00 00 00 	jal 4061d0 <jinit_read_gif>
  400584:	74 18 10 00 
  400588:	01 00 00 00 	j 400600 <select_file_type+0x250>
  40058c:	80 01 10 00 
  400590:	42 00 00 00 	addu $4,$0,$17
  400594:	00 04 11 00 
  400598:	02 00 00 00 	jal 4046b0 <jinit_read_ppm>
  40059c:	ac 11 10 00 
  4005a0:	01 00 00 00 	j 400600 <select_file_type+0x250>
  4005a4:	80 01 10 00 
  4005a8:	42 00 00 00 	addu $4,$0,$17
  4005ac:	00 04 11 00 
  4005b0:	02 00 00 00 	jal 407770 <jinit_read_targa>
  4005b4:	dc 1d 10 00 
  4005b8:	01 00 00 00 	j 400600 <select_file_type+0x250>
  4005bc:	80 01 10 00 
  4005c0:	28 00 00 00 	lw $3,0($17)
  4005c4:	00 00 03 11 
  4005c8:	43 00 00 00 	addiu $2,$0,1041
  4005cc:	11 04 02 00 
  4005d0:	34 00 00 00 	sw $2,20($3)
  4005d4:	14 00 02 03 
  4005d8:	28 00 00 00 	lw $2,0($17)
  4005dc:	00 00 02 11 
  4005e0:	28 00 00 00 	lw $2,0($2)
  4005e4:	00 00 02 02 
  4005e8:	42 00 00 00 	addu $4,$0,$17
  4005ec:	00 04 11 00 
  4005f0:	04 00 00 00 	jalr $31,$2
  4005f4:	00 1f 00 02 
  4005f8:	42 00 00 00 	addu $2,$0,$0
  4005fc:	00 02 00 00 
  400600:	28 00 00 00 	lw $31,28($29)
  400604:	1c 00 1f 1d 
  400608:	28 00 00 00 	lw $18,24($29)
  40060c:	18 00 12 1d 
  400610:	28 00 00 00 	lw $17,20($29)
  400614:	14 00 11 1d 
  400618:	28 00 00 00 	lw $16,16($29)
  40061c:	10 00 10 1d 
  400620:	43 00 00 00 	addiu $29,$29,32
  400624:	20 00 1d 1d 
  400628:	03 00 00 00 	jr $31
  40062c:	00 00 00 1f 

00400630 <usage>:
  400630:	28 00 00 00 	lw $4,-32424($28)
  400634:	58 81 04 1c 
  400638:	28 00 00 00 	lw $6,-31484($28)
  40063c:	04 85 06 1c 
  400640:	43 00 00 00 	addiu $29,$29,-24
  400644:	e8 ff 1d 1d 
  400648:	a2 00 00 00 	lui $5,4096
  40064c:	00 10 05 00 
  400650:	43 00 00 00 	addiu $5,$5,1564
  400654:	1c 06 05 05 
  400658:	34 00 00 00 	sw $31,16($29)
  40065c:	10 00 1f 1d 
  400660:	02 00 00 00 	jal 4235d0 <fprintf>
  400664:	74 8d 10 00 
  400668:	28 00 00 00 	lw $4,-32424($28)
  40066c:	58 81 04 1c 
  400670:	a2 00 00 00 	lui $5,4096
  400674:	00 10 05 00 
  400678:	43 00 00 00 	addiu $5,$5,1588
  40067c:	34 06 05 05 
  400680:	02 00 00 00 	jal 4235d0 <fprintf>
  400684:	74 8d 10 00 
  400688:	28 00 00 00 	lw $4,-32424($28)
  40068c:	58 81 04 1c 
  400690:	a2 00 00 00 	lui $5,4096
  400694:	00 10 05 00 
  400698:	43 00 00 00 	addiu $5,$5,1604
  40069c:	44 06 05 05 
  4006a0:	02 00 00 00 	jal 4235d0 <fprintf>
  4006a4:	74 8d 10 00 
  4006a8:	28 00 00 00 	lw $4,-32424($28)
  4006ac:	58 81 04 1c 
  4006b0:	a2 00 00 00 	lui $5,4096
  4006b4:	00 10 05 00 
  4006b8:	43 00 00 00 	addiu $5,$5,1644
  4006bc:	6c 06 05 05 
  4006c0:	02 00 00 00 	jal 4235d0 <fprintf>
  4006c4:	74 8d 10 00 
  4006c8:	28 00 00 00 	lw $4,-32424($28)
  4006cc:	58 81 04 1c 
  4006d0:	a2 00 00 00 	lui $5,4096
  4006d4:	00 10 05 00 
  4006d8:	43 00 00 00 	addiu $5,$5,1716
  4006dc:	b4 06 05 05 
  4006e0:	02 00 00 00 	jal 4235d0 <fprintf>
  4006e4:	74 8d 10 00 
  4006e8:	28 00 00 00 	lw $4,-32424($28)
  4006ec:	58 81 04 1c 
  4006f0:	a2 00 00 00 	lui $5,4096
  4006f4:	00 10 05 00 
  4006f8:	43 00 00 00 	addiu $5,$5,1764
  4006fc:	e4 06 05 05 
  400700:	02 00 00 00 	jal 4235d0 <fprintf>
  400704:	74 8d 10 00 
  400708:	28 00 00 00 	lw $4,-32424($28)
  40070c:	58 81 04 1c 
  400710:	a2 00 00 00 	lui $5,4096
  400714:	00 10 05 00 
  400718:	43 00 00 00 	addiu $5,$5,1844
  40071c:	34 07 05 05 
  400720:	02 00 00 00 	jal 4235d0 <fprintf>
  400724:	74 8d 10 00 
  400728:	28 00 00 00 	lw $4,-32424($28)
  40072c:	58 81 04 1c 
  400730:	a2 00 00 00 	lui $5,4096
  400734:	00 10 05 00 
  400738:	43 00 00 00 	addiu $5,$5,1892
  40073c:	64 07 05 05 
  400740:	02 00 00 00 	jal 4235d0 <fprintf>
  400744:	74 8d 10 00 
  400748:	28 00 00 00 	lw $4,-32424($28)
  40074c:	58 81 04 1c 
  400750:	a2 00 00 00 	lui $5,4096
  400754:	00 10 05 00 
  400758:	43 00 00 00 	addiu $5,$5,1960
  40075c:	a8 07 05 05 
  400760:	02 00 00 00 	jal 4235d0 <fprintf>
  400764:	74 8d 10 00 
  400768:	28 00 00 00 	lw $4,-32424($28)
  40076c:	58 81 04 1c 
  400770:	a2 00 00 00 	lui $5,4096
  400774:	00 10 05 00 
  400778:	43 00 00 00 	addiu $5,$5,1992
  40077c:	c8 07 05 05 
  400780:	a2 00 00 00 	lui $6,4096
  400784:	00 10 06 00 
  400788:	43 00 00 00 	addiu $6,$6,2036
  40078c:	f4 07 06 06 
  400790:	02 00 00 00 	jal 4235d0 <fprintf>
  400794:	74 8d 10 00 
  400798:	28 00 00 00 	lw $4,-32424($28)
  40079c:	58 81 04 1c 
  4007a0:	a2 00 00 00 	lui $5,4096
  4007a4:	00 10 05 00 
  4007a8:	43 00 00 00 	addiu $5,$5,2048
  4007ac:	00 08 05 05 
  4007b0:	43 00 00 00 	addiu $6,$28,-32744
  4007b4:	18 80 06 1c 
  4007b8:	02 00 00 00 	jal 4235d0 <fprintf>
  4007bc:	74 8d 10 00 
  4007c0:	28 00 00 00 	lw $4,-32424($28)
  4007c4:	58 81 04 1c 
  4007c8:	a2 00 00 00 	lui $5,4096
  4007cc:	00 10 05 00 
  4007d0:	43 00 00 00 	addiu $5,$5,2108
  4007d4:	3c 08 05 05 
  4007d8:	43 00 00 00 	addiu $6,$28,-32744
  4007dc:	18 80 06 1c 
  4007e0:	02 00 00 00 	jal 4235d0 <fprintf>
  4007e4:	74 8d 10 00 
  4007e8:	28 00 00 00 	lw $4,-32424($28)
  4007ec:	58 81 04 1c 
  4007f0:	a2 00 00 00 	lui $5,4096
  4007f4:	00 10 05 00 
  4007f8:	43 00 00 00 	addiu $5,$5,2160
  4007fc:	70 08 05 05 
  400800:	02 00 00 00 	jal 4235d0 <fprintf>
  400804:	74 8d 10 00 
  400808:	28 00 00 00 	lw $4,-32424($28)
  40080c:	58 81 04 1c 
  400810:	a2 00 00 00 	lui $5,4096
  400814:	00 10 05 00 
  400818:	43 00 00 00 	addiu $5,$5,2228
  40081c:	b4 08 05 05 
  400820:	02 00 00 00 	jal 4235d0 <fprintf>
  400824:	74 8d 10 00 
  400828:	28 00 00 00 	lw $4,-32424($28)
  40082c:	58 81 04 1c 
  400830:	a2 00 00 00 	lui $5,4096
  400834:	00 10 05 00 
  400838:	43 00 00 00 	addiu $5,$5,2292
  40083c:	f4 08 05 05 
  400840:	02 00 00 00 	jal 4235d0 <fprintf>
  400844:	74 8d 10 00 
  400848:	28 00 00 00 	lw $4,-32424($28)
  40084c:	58 81 04 1c 
  400850:	a2 00 00 00 	lui $5,4096
  400854:	00 10 05 00 
  400858:	43 00 00 00 	addiu $5,$5,2344
  40085c:	28 09 05 05 
  400860:	02 00 00 00 	jal 4235d0 <fprintf>
  400864:	74 8d 10 00 
  400868:	28 00 00 00 	lw $4,-32424($28)
  40086c:	58 81 04 1c 
  400870:	a2 00 00 00 	lui $5,4096
  400874:	00 10 05 00 
  400878:	43 00 00 00 	addiu $5,$5,2392
  40087c:	58 09 05 05 
  400880:	02 00 00 00 	jal 4235d0 <fprintf>
  400884:	74 8d 10 00 
  400888:	28 00 00 00 	lw $4,-32424($28)
  40088c:	58 81 04 1c 
  400890:	a2 00 00 00 	lui $5,4096
  400894:	00 10 05 00 
  400898:	43 00 00 00 	addiu $5,$5,2436
  40089c:	84 09 05 05 
  4008a0:	02 00 00 00 	jal 4235d0 <fprintf>
  4008a4:	74 8d 10 00 
  4008a8:	28 00 00 00 	lw $4,-32424($28)
  4008ac:	58 81 04 1c 
  4008b0:	a2 00 00 00 	lui $5,4096
  4008b4:	00 10 05 00 
  4008b8:	43 00 00 00 	addiu $5,$5,2460
  4008bc:	9c 09 05 05 
  4008c0:	02 00 00 00 	jal 4235d0 <fprintf>
  4008c4:	74 8d 10 00 
  4008c8:	28 00 00 00 	lw $4,-32424($28)
  4008cc:	58 81 04 1c 
  4008d0:	a2 00 00 00 	lui $5,4096
  4008d4:	00 10 05 00 
  4008d8:	43 00 00 00 	addiu $5,$5,2500
  4008dc:	c4 09 05 05 
  4008e0:	02 00 00 00 	jal 4235d0 <fprintf>
  4008e4:	74 8d 10 00 
  4008e8:	28 00 00 00 	lw $4,-32424($28)
  4008ec:	58 81 04 1c 
  4008f0:	a2 00 00 00 	lui $5,4096
  4008f4:	00 10 05 00 
  4008f8:	43 00 00 00 	addiu $5,$5,2556
  4008fc:	fc 09 05 05 
  400900:	02 00 00 00 	jal 4235d0 <fprintf>
  400904:	74 8d 10 00 
  400908:	28 00 00 00 	lw $4,-32424($28)
  40090c:	58 81 04 1c 
  400910:	a2 00 00 00 	lui $5,4096
  400914:	00 10 05 00 
  400918:	43 00 00 00 	addiu $5,$5,2612
  40091c:	34 0a 05 05 
  400920:	02 00 00 00 	jal 4235d0 <fprintf>
  400924:	74 8d 10 00 
  400928:	28 00 00 00 	lw $4,-32424($28)
  40092c:	58 81 04 1c 
  400930:	a2 00 00 00 	lui $5,4096
  400934:	00 10 05 00 
  400938:	43 00 00 00 	addiu $5,$5,2668
  40093c:	6c 0a 05 05 
  400940:	02 00 00 00 	jal 4235d0 <fprintf>
  400944:	74 8d 10 00 
  400948:	43 00 00 00 	addiu $4,$0,1
  40094c:	01 00 04 00 
  400950:	02 00 00 00 	jal 421420 <exit>
  400954:	08 85 10 00 
  400958:	28 00 00 00 	lw $31,16($29)
  40095c:	10 00 1f 1d 
  400960:	43 00 00 00 	addiu $29,$29,24
  400964:	18 00 1d 1d 
  400968:	03 00 00 00 	jr $31
  40096c:	00 00 00 1f 

00400970 <parse_switches>:
  400970:	43 00 00 00 	addiu $29,$29,-120
  400974:	88 ff 1d 1d 
  400978:	34 00 00 00 	sw $18,88($29)
  40097c:	58 00 12 1d 
  400980:	42 00 00 00 	addu $18,$0,$4
  400984:	00 12 04 00 
  400988:	34 00 00 00 	sw $20,96($29)
  40098c:	60 00 14 1d 
  400990:	42 00 00 00 	addu $20,$0,$5
  400994:	00 14 05 00 
  400998:	34 00 00 00 	sw $19,92($29)
  40099c:	5c 00 13 1d 
  4009a0:	42 00 00 00 	addu $19,$0,$6
  4009a4:	00 13 06 00 
  4009a8:	34 00 00 00 	sw $22,104($29)
  4009ac:	68 00 16 1d 
  4009b0:	42 00 00 00 	addu $22,$0,$0
  4009b4:	00 16 00 00 
  4009b8:	34 00 00 00 	sw $30,112($29)
  4009bc:	70 00 1e 1d 
  4009c0:	42 00 00 00 	addu $30,$0,$0
  4009c4:	00 1e 00 00 
  4009c8:	43 00 00 00 	addiu $2,$0,75
  4009cc:	4b 00 02 00 
  4009d0:	43 00 00 00 	addiu $8,$0,100
  4009d4:	64 00 08 00 
  4009d8:	34 00 00 00 	sw $31,116($29)
  4009dc:	74 00 1f 1d 
  4009e0:	34 00 00 00 	sw $23,108($29)
  4009e4:	6c 00 17 1d 
  4009e8:	34 00 00 00 	sw $21,100($29)
  4009ec:	64 00 15 1d 
  4009f0:	34 00 00 00 	sw $17,84($29)
  4009f4:	54 00 11 1d 
  4009f8:	34 00 00 00 	sw $16,80($29)
  4009fc:	50 00 10 1d 
  400a00:	34 00 00 00 	sw $7,40($29)
  400a04:	28 00 07 1d 
  400a08:	34 00 00 00 	sw $0,64($29)
  400a0c:	40 00 00 1d 
  400a10:	34 00 00 00 	sw $0,72($29)
  400a14:	48 00 00 1d 
  400a18:	34 00 00 00 	sw $2,24($29)
  400a1c:	18 00 02 1d 
  400a20:	34 00 00 00 	sw $8,48($29)
  400a24:	30 00 08 1d 
  400a28:	34 00 00 00 	sw $0,56($29)
  400a2c:	38 00 00 1d 
  400a30:	28 00 00 00 	lw $2,0($18)
  400a34:	00 00 02 12 
  400a38:	42 00 00 00 	addu $23,$0,$0
  400a3c:	00 17 00 00 
  400a40:	43 00 00 00 	addiu $17,$0,1
  400a44:	01 00 11 00 
  400a48:	34 00 00 00 	sw $0,-31488($28)
  400a4c:	00 85 00 1c 
  400a50:	34 00 00 00 	sw $0,-31480($28)
  400a54:	08 85 00 1c 
  400a58:	34 00 00 00 	sw $0,104($2)
  400a5c:	68 00 00 02 
  400a60:	5b 00 00 00 	slt $2,$17,$20
  400a64:	00 02 14 11 
  400a68:	05 00 00 00 	beq $2,$0,401508 <parse_switches+0xb98>
  400a6c:	a6 02 00 02 
  400a70:	43 00 00 00 	addiu $21,$0,1
  400a74:	01 00 15 00 
  400a78:	55 00 00 00 	sll $2,$17,0x2
  400a7c:	02 02 11 00 
  400a80:	42 00 00 00 	addu $2,$2,$19
  400a84:	00 02 13 02 
  400a88:	28 00 00 00 	lw $16,0($2)
  400a8c:	00 00 10 02 
  400a90:	20 00 00 00 	lb $3,0($16)
  400a94:	00 00 03 10 
  400a98:	43 00 00 00 	addiu $2,$0,45
  400a9c:	2d 00 02 00 
  400aa0:	05 00 00 00 	beq $3,$2,400ad0 <parse_switches+0x160>
  400aa4:	0a 00 02 03 
  400aa8:	28 00 00 00 	lw $8,40($29)
  400aac:	28 00 08 1d 
  400ab0:	5b 00 00 00 	slt $2,$8,$17
  400ab4:	00 02 11 08 
  400ab8:	06 00 00 00 	bne $2,$0,401508 <parse_switches+0xb98>
  400abc:	92 02 00 02 
  400ac0:	34 00 00 00 	sw $0,-31480($28)
  400ac4:	08 85 00 1c 
  400ac8:	01 00 00 00 	j 4014f0 <parse_switches+0xb80>
  400acc:	3c 05 10 00 
  400ad0:	43 00 00 00 	addiu $16,$16,1
  400ad4:	01 00 10 10 
  400ad8:	42 00 00 00 	addu $4,$0,$16
  400adc:	00 04 10 00 
  400ae0:	a2 00 00 00 	lui $5,4096
  400ae4:	00 10 05 00 
  400ae8:	43 00 00 00 	addiu $5,$5,2728
  400aec:	a8 0a 05 05 
  400af0:	43 00 00 00 	addiu $6,$0,1
  400af4:	01 00 06 00 
  400af8:	02 00 00 00 	jal 40a130 <keymatch>
  400afc:	4c 28 10 00 
  400b00:	05 00 00 00 	beq $2,$0,400b40 <parse_switches+0x1d0>
  400b04:	0e 00 00 02 
  400b08:	28 00 00 00 	lw $4,-32424($28)
  400b0c:	58 81 04 1c 
  400b10:	28 00 00 00 	lw $6,-31484($28)
  400b14:	04 85 06 1c 
  400b18:	a2 00 00 00 	lui $5,4096
  400b1c:	00 10 05 00 
  400b20:	43 00 00 00 	addiu $5,$5,2740
  400b24:	b4 0a 05 05 
  400b28:	02 00 00 00 	jal 4235d0 <fprintf>
  400b2c:	74 8d 10 00 
  400b30:	43 00 00 00 	addiu $4,$0,1
  400b34:	01 00 04 00 
  400b38:	02 00 00 00 	jal 421420 <exit>
  400b3c:	08 85 10 00 
  400b40:	42 00 00 00 	addu $4,$0,$16
  400b44:	00 04 10 00 
  400b48:	a2 00 00 00 	lui $5,4096
  400b4c:	00 10 05 00 
  400b50:	43 00 00 00 	addiu $5,$5,2784
  400b54:	e0 0a 05 05 
  400b58:	43 00 00 00 	addiu $6,$0,1
  400b5c:	01 00 06 00 
  400b60:	02 00 00 00 	jal 40a130 <keymatch>
  400b64:	4c 28 10 00 
  400b68:	05 00 00 00 	beq $2,$0,400b80 <parse_switches+0x210>
  400b6c:	04 00 00 02 
  400b70:	43 00 00 00 	addiu $23,$0,1
  400b74:	01 00 17 00 
  400b78:	01 00 00 00 	j 4014f0 <parse_switches+0xb80>
  400b7c:	3c 05 10 00 
  400b80:	42 00 00 00 	addu $4,$0,$16
  400b84:	00 04 10 00 
  400b88:	43 00 00 00 	addiu $5,$28,-32740
  400b8c:	1c 80 05 1c 
  400b90:	43 00 00 00 	addiu $6,$0,2
  400b94:	02 00 06 00 
  400b98:	02 00 00 00 	jal 40a130 <keymatch>
  400b9c:	4c 28 10 00 
  400ba0:	05 00 00 00 	beq $2,$0,400ca8 <parse_switches+0x338>
  400ba4:	40 00 00 02 
  400ba8:	43 00 00 00 	addiu $17,$17,1
  400bac:	01 00 11 11 
  400bb0:	5b 00 00 00 	slt $2,$17,$20
  400bb4:	00 02 14 11 
  400bb8:	06 00 00 00 	bne $2,$0,400bc8 <parse_switches+0x258>
  400bbc:	02 00 00 02 
  400bc0:	02 00 00 00 	jal 400630 <usage>
  400bc4:	8c 01 10 00 
  400bc8:	55 00 00 00 	sll $2,$17,0x2
  400bcc:	02 02 11 00 
  400bd0:	42 00 00 00 	addu $2,$2,$19
  400bd4:	00 02 13 02 
  400bd8:	28 00 00 00 	lw $4,0($2)
  400bdc:	00 00 04 02 
  400be0:	43 00 00 00 	addiu $5,$28,-32736
  400be4:	20 80 05 1c 
  400be8:	43 00 00 00 	addiu $6,$0,1
  400bec:	01 00 06 00 
  400bf0:	02 00 00 00 	jal 40a130 <keymatch>
  400bf4:	4c 28 10 00 
  400bf8:	05 00 00 00 	beq $2,$0,400c10 <parse_switches+0x2a0>
  400bfc:	04 00 00 02 
  400c00:	34 00 00 00 	sw $0,188($18)
  400c04:	bc 00 00 12 
  400c08:	01 00 00 00 	j 4014f0 <parse_switches+0xb80>
  400c0c:	3c 05 10 00 
  400c10:	55 00 00 00 	sll $2,$17,0x2
  400c14:	02 02 11 00 
  400c18:	42 00 00 00 	addu $2,$2,$19
  400c1c:	00 02 13 02 
  400c20:	28 00 00 00 	lw $4,0($2)
  400c24:	00 00 04 02 
  400c28:	43 00 00 00 	addiu $5,$28,-32732
  400c2c:	24 80 05 1c 
  400c30:	43 00 00 00 	addiu $6,$0,2
  400c34:	02 00 06 00 
  400c38:	02 00 00 00 	jal 40a130 <keymatch>
  400c3c:	4c 28 10 00 
  400c40:	05 00 00 00 	beq $2,$0,400c58 <parse_switches+0x2e8>
  400c44:	04 00 00 02 
  400c48:	34 00 00 00 	sw $21,188($18)
  400c4c:	bc 00 15 12 
  400c50:	01 00 00 00 	j 4014f0 <parse_switches+0xb80>
  400c54:	3c 05 10 00 
  400c58:	55 00 00 00 	sll $2,$17,0x2
  400c5c:	02 02 11 00 
  400c60:	42 00 00 00 	addu $2,$2,$19
  400c64:	00 02 13 02 
  400c68:	28 00 00 00 	lw $4,0($2)
  400c6c:	00 00 04 02 
  400c70:	43 00 00 00 	addiu $5,$28,-32724
  400c74:	2c 80 05 1c 
  400c78:	43 00 00 00 	addiu $6,$0,2
  400c7c:	02 00 06 00 
  400c80:	02 00 00 00 	jal 40a130 <keymatch>
  400c84:	4c 28 10 00 
  400c88:	05 00 00 00 	beq $2,$0,4014e8 <parse_switches+0xb78>
  400c8c:	16 02 00 02 
  400c90:	43 00 00 00 	addiu $2,$0,2
  400c94:	02 00 02 00 
  400c98:	34 00 00 00 	sw $2,188($18)
  400c9c:	bc 00 02 12 
  400ca0:	01 00 00 00 	j 4014f0 <parse_switches+0xb80>
  400ca4:	3c 05 10 00 
  400ca8:	42 00 00 00 	addu $4,$0,$16
  400cac:	00 04 10 00 
  400cb0:	43 00 00 00 	addiu $5,$28,-32716
  400cb4:	34 80 05 1c 
  400cb8:	43 00 00 00 	addiu $6,$0,1
  400cbc:	01 00 06 00 
  400cc0:	02 00 00 00 	jal 40a130 <keymatch>
  400cc4:	4c 28 10 00 
  400cc8:	06 00 00 00 	bne $2,$0,400cf8 <parse_switches+0x388>
  400ccc:	0a 00 00 02 
  400cd0:	42 00 00 00 	addu $4,$0,$16
  400cd4:	00 04 10 00 
  400cd8:	43 00 00 00 	addiu $5,$28,-32708
  400cdc:	3c 80 05 1c 
  400ce0:	43 00 00 00 	addiu $6,$0,1
  400ce4:	01 00 06 00 
  400ce8:	02 00 00 00 	jal 40a130 <keymatch>
  400cec:	4c 28 10 00 
  400cf0:	05 00 00 00 	beq $2,$0,400d78 <parse_switches+0x408>
  400cf4:	20 00 00 02 
  400cf8:	28 00 00 00 	lw $2,-32700($28)
  400cfc:	44 80 02 1c 
  400d00:	06 00 00 00 	bne $2,$0,400d50 <parse_switches+0x3e0>
  400d04:	12 00 00 02 
  400d08:	28 00 00 00 	lw $4,-32424($28)
  400d0c:	58 81 04 1c 
  400d10:	a2 00 00 00 	lui $5,4096
  400d14:	00 10 05 00 
  400d18:	43 00 00 00 	addiu $5,$5,2796
  400d1c:	ec 0a 05 05 
  400d20:	a2 00 00 00 	lui $6,4096
  400d24:	00 10 06 00 
  400d28:	43 00 00 00 	addiu $6,$6,2844
  400d2c:	1c 0b 06 06 
  400d30:	a2 00 00 00 	lui $7,4096
  400d34:	00 10 07 00 
  400d38:	43 00 00 00 	addiu $7,$7,2860
  400d3c:	2c 0b 07 07 
  400d40:	02 00 00 00 	jal 4235d0 <fprintf>
  400d44:	74 8d 10 00 
  400d48:	34 00 00 00 	sw $21,-32700($28)
  400d4c:	44 80 15 1c 
  400d50:	28 00 00 00 	lw $3,0($18)
  400d54:	00 00 03 12 
  400d58:	28 00 00 00 	lw $2,104($3)
  400d5c:	68 00 02 03 
  400d60:	43 00 00 00 	addiu $2,$2,1
  400d64:	01 00 02 02 
  400d68:	34 00 00 00 	sw $2,104($3)
  400d6c:	68 00 02 03 
  400d70:	01 00 00 00 	j 4014f0 <parse_switches+0xb80>
  400d74:	3c 05 10 00 
  400d78:	42 00 00 00 	addu $4,$0,$16
  400d7c:	00 04 10 00 
  400d80:	a2 00 00 00 	lui $5,4096
  400d84:	00 10 05 00 
  400d88:	43 00 00 00 	addiu $5,$5,2896
  400d8c:	50 0b 05 05 
  400d90:	43 00 00 00 	addiu $6,$0,2
  400d94:	02 00 06 00 
  400d98:	02 00 00 00 	jal 40a130 <keymatch>
  400d9c:	4c 28 10 00 
  400da0:	06 00 00 00 	bne $2,$0,400dd8 <parse_switches+0x468>
  400da4:	0c 00 00 02 
  400da8:	42 00 00 00 	addu $4,$0,$16
  400dac:	00 04 10 00 
  400db0:	a2 00 00 00 	lui $5,4096
  400db4:	00 10 05 00 
  400db8:	43 00 00 00 	addiu $5,$5,2908
  400dbc:	5c 0b 05 05 
  400dc0:	43 00 00 00 	addiu $6,$0,2
  400dc4:	02 00 06 00 
  400dc8:	02 00 00 00 	jal 40a130 <keymatch>
  400dcc:	4c 28 10 00 
  400dd0:	05 00 00 00 	beq $2,$0,400df8 <parse_switches+0x488>
  400dd4:	08 00 00 02 
  400dd8:	42 00 00 00 	addu $4,$0,$18
  400ddc:	00 04 12 00 
  400de0:	43 00 00 00 	addiu $5,$0,1
  400de4:	01 00 05 00 
  400de8:	02 00 00 00 	jal 40af58 <jpeg_set_colorspace>
  400dec:	d6 2b 10 00 
  400df0:	01 00 00 00 	j 4014f0 <parse_switches+0xb80>
  400df4:	3c 05 10 00 
  400df8:	42 00 00 00 	addu $4,$0,$16
  400dfc:	00 04 10 00 
  400e00:	a2 00 00 00 	lui $5,4096
  400e04:	00 10 05 00 
  400e08:	43 00 00 00 	addiu $5,$5,2920
  400e0c:	68 0b 05 05 
  400e10:	43 00 00 00 	addiu $6,$0,3
  400e14:	03 00 06 00 
  400e18:	02 00 00 00 	jal 40a130 <keymatch>
  400e1c:	4c 28 10 00 
  400e20:	05 00 00 00 	beq $2,$0,400f48 <parse_switches+0x5d8>
  400e24:	48 00 00 02 
  400e28:	43 00 00 00 	addiu $2,$0,120
  400e2c:	78 00 02 00 
  400e30:	30 00 00 00 	sb $2,20($29)
  400e34:	14 00 02 1d 
  400e38:	43 00 00 00 	addiu $17,$17,1
  400e3c:	01 00 11 11 
  400e40:	5b 00 00 00 	slt $2,$17,$20
  400e44:	00 02 14 11 
  400e48:	06 00 00 00 	bne $2,$0,400e58 <parse_switches+0x4e8>
  400e4c:	02 00 00 02 
  400e50:	02 00 00 00 	jal 400630 <usage>
  400e54:	8c 01 10 00 
  400e58:	55 00 00 00 	sll $2,$17,0x2
  400e5c:	02 02 11 00 
  400e60:	42 00 00 00 	addu $2,$2,$19
  400e64:	00 02 13 02 
  400e68:	28 00 00 00 	lw $4,0($2)
  400e6c:	00 00 04 02 
  400e70:	43 00 00 00 	addiu $5,$28,-32696
  400e74:	48 80 05 1c 
  400e78:	43 00 00 00 	addiu $6,$29,16
  400e7c:	10 00 06 1d 
  400e80:	43 00 00 00 	addiu $7,$29,20
  400e84:	14 00 07 1d 
  400e88:	02 00 00 00 	jal 423620 <sscanf>
  400e8c:	88 8d 10 00 
  400e90:	08 00 00 00 	bgtz $2,400ea0 <parse_switches+0x530>
  400e94:	02 00 00 02 
  400e98:	02 00 00 00 	jal 400630 <usage>
  400e9c:	8c 01 10 00 
  400ea0:	20 00 00 00 	lb $3,20($29)
  400ea4:	14 00 03 1d 
  400ea8:	43 00 00 00 	addiu $2,$0,109
  400eac:	6d 00 02 00 
  400eb0:	05 00 00 00 	beq $3,$2,400ec8 <parse_switches+0x558>
  400eb4:	04 00 02 03 
  400eb8:	43 00 00 00 	addiu $2,$0,77
  400ebc:	4d 00 02 00 
  400ec0:	06 00 00 00 	bne $3,$2,400f00 <parse_switches+0x590>
  400ec4:	0e 00 02 03 
  400ec8:	28 00 00 00 	lw $3,16($29)
  400ecc:	10 00 03 1d 
  400ed0:	55 00 00 00 	sll $2,$3,0x5
  400ed4:	05 02 03 00 
  400ed8:	45 00 00 00 	subu $2,$2,$3
  400edc:	00 02 03 02 
  400ee0:	55 00 00 00 	sll $2,$2,0x2
  400ee4:	02 02 02 00 
  400ee8:	42 00 00 00 	addu $2,$2,$3
  400eec:	00 02 03 02 
  400ef0:	55 00 00 00 	sll $2,$2,0x3
  400ef4:	03 02 02 00 
  400ef8:	34 00 00 00 	sw $2,16($29)
  400efc:	10 00 02 1d 
  400f00:	28 00 00 00 	lw $3,16($29)
  400f04:	10 00 03 1d 
  400f08:	28 00 00 00 	lw $4,4($18)
  400f0c:	04 00 04 12 
  400f10:	55 00 00 00 	sll $2,$3,0x5
  400f14:	05 02 03 00 
  400f18:	45 00 00 00 	subu $2,$2,$3
  400f1c:	00 02 03 02 
  400f20:	55 00 00 00 	sll $2,$2,0x2
  400f24:	02 02 02 00 
  400f28:	42 00 00 00 	addu $2,$2,$3
  400f2c:	00 02 03 02 
  400f30:	55 00 00 00 	sll $2,$2,0x3
  400f34:	03 02 02 00 
  400f38:	34 00 00 00 	sw $2,44($4)
  400f3c:	2c 00 02 04 
  400f40:	01 00 00 00 	j 4014f0 <parse_switches+0xb80>
  400f44:	3c 05 10 00 
  400f48:	42 00 00 00 	addu $4,$0,$16
  400f4c:	00 04 10 00 
  400f50:	a2 00 00 00 	lui $5,4096
  400f54:	00 10 05 00 
  400f58:	43 00 00 00 	addiu $5,$5,2932
  400f5c:	74 0b 05 05 
  400f60:	43 00 00 00 	addiu $6,$0,1
  400f64:	01 00 06 00 
  400f68:	02 00 00 00 	jal 40a130 <keymatch>
  400f6c:	4c 28 10 00 
  400f70:	06 00 00 00 	bne $2,$0,400fa8 <parse_switches+0x638>
  400f74:	0c 00 00 02 
  400f78:	42 00 00 00 	addu $4,$0,$16
  400f7c:	00 04 10 00 
  400f80:	a2 00 00 00 	lui $5,4096
  400f84:	00 10 05 00 
  400f88:	43 00 00 00 	addiu $5,$5,2944
  400f8c:	80 0b 05 05 
  400f90:	43 00 00 00 	addiu $6,$0,1
  400f94:	01 00 06 00 
  400f98:	02 00 00 00 	jal 40a130 <keymatch>
  400f9c:	4c 28 10 00 
  400fa0:	05 00 00 00 	beq $2,$0,400fb8 <parse_switches+0x648>
  400fa4:	04 00 00 02 
  400fa8:	34 00 00 00 	sw $21,176($18)
  400fac:	b0 00 15 12 
  400fb0:	01 00 00 00 	j 4014f0 <parse_switches+0xb80>
  400fb4:	3c 05 10 00 
  400fb8:	42 00 00 00 	addu $4,$0,$16
  400fbc:	00 04 10 00 
  400fc0:	43 00 00 00 	addiu $5,$28,-32688
  400fc4:	50 80 05 1c 
  400fc8:	43 00 00 00 	addiu $6,$0,4
  400fcc:	04 00 06 00 
  400fd0:	02 00 00 00 	jal 40a130 <keymatch>
  400fd4:	4c 28 10 00 
  400fd8:	05 00 00 00 	beq $2,$0,401028 <parse_switches+0x6b8>
  400fdc:	12 00 00 02 
  400fe0:	43 00 00 00 	addiu $17,$17,1
  400fe4:	01 00 11 11 
  400fe8:	5b 00 00 00 	slt $2,$17,$20
  400fec:	00 02 14 11 
  400ff0:	06 00 00 00 	bne $2,$0,401000 <parse_switches+0x690>
  400ff4:	02 00 00 02 
  400ff8:	02 00 00 00 	jal 400630 <usage>
  400ffc:	8c 01 10 00 
  401000:	55 00 00 00 	sll $2,$17,0x2
  401004:	02 02 11 00 
  401008:	42 00 00 00 	addu $2,$2,$19
  40100c:	00 02 13 02 
  401010:	28 00 00 00 	lw $2,0($2)
  401014:	00 00 02 02 
  401018:	34 00 00 00 	sw $2,-31480($28)
  40101c:	08 85 02 1c 
  401020:	01 00 00 00 	j 4014f0 <parse_switches+0xb80>
  401024:	3c 05 10 00 
  401028:	42 00 00 00 	addu $4,$0,$16
  40102c:	00 04 10 00 
  401030:	a2 00 00 00 	lui $5,4096
  401034:	00 10 05 00 
  401038:	43 00 00 00 	addiu $5,$5,2956
  40103c:	8c 0b 05 05 
  401040:	43 00 00 00 	addiu $6,$0,1
  401044:	01 00 06 00 
  401048:	02 00 00 00 	jal 40a130 <keymatch>
  40104c:	4c 28 10 00 
  401050:	05 00 00 00 	beq $2,$0,401070 <parse_switches+0x700>
  401054:	06 00 00 02 
  401058:	43 00 00 00 	addiu $8,$0,1
  40105c:	01 00 08 00 
  401060:	34 00 00 00 	sw $8,56($29)
  401064:	38 00 08 1d 
  401068:	01 00 00 00 	j 4014f0 <parse_switches+0xb80>
  40106c:	3c 05 10 00 
  401070:	42 00 00 00 	addu $4,$0,$16
  401074:	00 04 10 00 
  401078:	43 00 00 00 	addiu $5,$28,-32680
  40107c:	58 80 05 1c 
  401080:	43 00 00 00 	addiu $6,$0,1
  401084:	01 00 06 00 
  401088:	02 00 00 00 	jal 40a130 <keymatch>
  40108c:	4c 28 10 00 
  401090:	05 00 00 00 	beq $2,$0,401118 <parse_switches+0x7a8>
  401094:	20 00 00 02 
  401098:	43 00 00 00 	addiu $17,$17,1
  40109c:	01 00 11 11 
  4010a0:	5b 00 00 00 	slt $2,$17,$20
  4010a4:	00 02 14 11 
  4010a8:	06 00 00 00 	bne $2,$0,4010b8 <parse_switches+0x748>
  4010ac:	02 00 00 02 
  4010b0:	02 00 00 00 	jal 400630 <usage>
  4010b4:	8c 01 10 00 
  4010b8:	55 00 00 00 	sll $2,$17,0x2
  4010bc:	02 02 11 00 
  4010c0:	42 00 00 00 	addu $2,$2,$19
  4010c4:	00 02 13 02 
  4010c8:	28 00 00 00 	lw $4,0($2)
  4010cc:	00 00 04 02 
  4010d0:	43 00 00 00 	addiu $5,$28,-32672
  4010d4:	60 80 05 1c 
  4010d8:	43 00 00 00 	addiu $6,$29,24
  4010dc:	18 00 06 1d 
  4010e0:	02 00 00 00 	jal 423620 <sscanf>
  4010e4:	88 8d 10 00 
  4010e8:	05 00 00 00 	beq $2,$21,4010f8 <parse_switches+0x788>
  4010ec:	02 00 15 02 
  4010f0:	02 00 00 00 	jal 400630 <usage>
  4010f4:	8c 01 10 00 
  4010f8:	28 00 00 00 	lw $4,24($29)
  4010fc:	18 00 04 1d 
  401100:	02 00 00 00 	jal 40a760 <jpeg_quality_scaling>
  401104:	d8 29 10 00 
  401108:	34 00 00 00 	sw $2,48($29)
  40110c:	30 00 02 1d 
  401110:	01 00 00 00 	j 4014f0 <parse_switches+0xb80>
  401114:	3c 05 10 00 
  401118:	42 00 00 00 	addu $4,$0,$16
  40111c:	00 04 10 00 
  401120:	43 00 00 00 	addiu $5,$28,-32668
  401124:	64 80 05 1c 
  401128:	43 00 00 00 	addiu $6,$0,2
  40112c:	02 00 06 00 
  401130:	02 00 00 00 	jal 40a130 <keymatch>
  401134:	4c 28 10 00 
  401138:	05 00 00 00 	beq $2,$0,401180 <parse_switches+0x810>
  40113c:	10 00 00 02 
  401140:	43 00 00 00 	addiu $17,$17,1
  401144:	01 00 11 11 
  401148:	5b 00 00 00 	slt $2,$17,$20
  40114c:	00 02 14 11 
  401150:	06 00 00 00 	bne $2,$0,401160 <parse_switches+0x7f0>
  401154:	02 00 00 02 
  401158:	02 00 00 00 	jal 400630 <usage>
  40115c:	8c 01 10 00 
  401160:	55 00 00 00 	sll $2,$17,0x2
  401164:	02 02 11 00 
  401168:	42 00 00 00 	addu $2,$2,$19
  40116c:	00 02 13 02 
  401170:	28 00 00 00 	lw $30,0($2)
  401174:	00 00 1e 02 
  401178:	01 00 00 00 	j 4014f0 <parse_switches+0xb80>
  40117c:	3c 05 10 00 
  401180:	42 00 00 00 	addu $4,$0,$16
  401184:	00 04 10 00 
  401188:	43 00 00 00 	addiu $5,$28,-32660
  40118c:	6c 80 05 1c 
  401190:	43 00 00 00 	addiu $6,$0,2
  401194:	02 00 06 00 
  401198:	02 00 00 00 	jal 40a130 <keymatch>
  40119c:	4c 28 10 00 
  4011a0:	05 00 00 00 	beq $2,$0,4011e8 <parse_switches+0x878>
  4011a4:	10 00 00 02 
  4011a8:	43 00 00 00 	addiu $17,$17,1
  4011ac:	01 00 11 11 
  4011b0:	5b 00 00 00 	slt $2,$17,$20
  4011b4:	00 02 14 11 
  4011b8:	06 00 00 00 	bne $2,$0,4011c8 <parse_switches+0x858>
  4011bc:	02 00 00 02 
  4011c0:	02 00 00 00 	jal 400630 <usage>
  4011c4:	8c 01 10 00 
  4011c8:	55 00 00 00 	sll $2,$17,0x2
  4011cc:	02 02 11 00 
  4011d0:	42 00 00 00 	addu $2,$2,$19
  4011d4:	00 02 13 02 
  4011d8:	28 00 00 00 	lw $22,0($2)
  4011dc:	00 00 16 02 
  4011e0:	01 00 00 00 	j 4014f0 <parse_switches+0xb80>
  4011e4:	3c 05 10 00 
  4011e8:	42 00 00 00 	addu $4,$0,$16
  4011ec:	00 04 10 00 
  4011f0:	43 00 00 00 	addiu $5,$28,-32652
  4011f4:	74 80 05 1c 
  4011f8:	43 00 00 00 	addiu $6,$0,1
  4011fc:	01 00 06 00 
  401200:	02 00 00 00 	jal 40a130 <keymatch>
  401204:	4c 28 10 00 
  401208:	05 00 00 00 	beq $2,$0,401310 <parse_switches+0x9a0>
  40120c:	40 00 00 02 
  401210:	43 00 00 00 	addiu $2,$0,120
  401214:	78 00 02 00 
  401218:	30 00 00 00 	sb $2,32($29)
  40121c:	20 00 02 1d 
  401220:	43 00 00 00 	addiu $17,$17,1
  401224:	01 00 11 11 
  401228:	5b 00 00 00 	slt $2,$17,$20
  40122c:	00 02 14 11 
  401230:	06 00 00 00 	bne $2,$0,401240 <parse_switches+0x8d0>
  401234:	02 00 00 02 
  401238:	02 00 00 00 	jal 400630 <usage>
  40123c:	8c 01 10 00 
  401240:	55 00 00 00 	sll $2,$17,0x2
  401244:	02 02 11 00 
  401248:	42 00 00 00 	addu $2,$2,$19
  40124c:	00 02 13 02 
  401250:	28 00 00 00 	lw $4,0($2)
  401254:	00 00 04 02 
  401258:	43 00 00 00 	addiu $5,$28,-32696
  40125c:	48 80 05 1c 
  401260:	43 00 00 00 	addiu $6,$29,28
  401264:	1c 00 06 1d 
  401268:	43 00 00 00 	addiu $7,$29,32
  40126c:	20 00 07 1d 
  401270:	02 00 00 00 	jal 423620 <sscanf>
  401274:	88 8d 10 00 
  401278:	08 00 00 00 	bgtz $2,401288 <parse_switches+0x918>
  40127c:	02 00 00 02 
  401280:	02 00 00 00 	jal 400630 <usage>
  401284:	8c 01 10 00 
  401288:	28 00 00 00 	lw $3,28($29)
  40128c:	1c 00 03 1d 
  401290:	51 00 00 00 	ori $2,$0,65535
  401294:	ff ff 02 00 
  401298:	5d 00 00 00 	sltu $2,$2,$3
  40129c:	00 02 03 02 
  4012a0:	05 00 00 00 	beq $2,$0,4012b0 <parse_switches+0x940>
  4012a4:	02 00 00 02 
  4012a8:	02 00 00 00 	jal 400630 <usage>
  4012ac:	8c 01 10 00 
  4012b0:	20 00 00 00 	lb $3,32($29)
  4012b4:	20 00 03 1d 
  4012b8:	43 00 00 00 	addiu $2,$0,98
  4012bc:	62 00 02 00 
  4012c0:	05 00 00 00 	beq $3,$2,4012d8 <parse_switches+0x968>
  4012c4:	04 00 02 03 
  4012c8:	43 00 00 00 	addiu $2,$0,66
  4012cc:	42 00 02 00 
  4012d0:	06 00 00 00 	bne $3,$2,4012f8 <parse_switches+0x988>
  4012d4:	08 00 02 03 
  4012d8:	28 00 00 00 	lw $2,28($29)
  4012dc:	1c 00 02 1d 
  4012e0:	34 00 00 00 	sw $2,192($18)
  4012e4:	c0 00 02 12 
  4012e8:	34 00 00 00 	sw $0,196($18)
  4012ec:	c4 00 00 12 
  4012f0:	01 00 00 00 	j 4014f0 <parse_switches+0xb80>
  4012f4:	3c 05 10 00 
  4012f8:	28 00 00 00 	lw $2,28($29)
  4012fc:	1c 00 02 1d 
  401300:	34 00 00 00 	sw $2,196($18)
  401304:	c4 00 02 12 
  401308:	01 00 00 00 	j 4014f0 <parse_switches+0xb80>
  40130c:	3c 05 10 00 
  401310:	42 00 00 00 	addu $4,$0,$16
  401314:	00 04 10 00 
  401318:	43 00 00 00 	addiu $5,$28,-32644
  40131c:	7c 80 05 1c 
  401320:	43 00 00 00 	addiu $6,$0,2
  401324:	02 00 06 00 
  401328:	02 00 00 00 	jal 40a130 <keymatch>
  40132c:	4c 28 10 00 
  401330:	05 00 00 00 	beq $2,$0,401380 <parse_switches+0xa10>
  401334:	12 00 00 02 
  401338:	43 00 00 00 	addiu $17,$17,1
  40133c:	01 00 11 11 
  401340:	5b 00 00 00 	slt $2,$17,$20
  401344:	00 02 14 11 
  401348:	06 00 00 00 	bne $2,$0,401358 <parse_switches+0x9e8>
  40134c:	02 00 00 02 
  401350:	02 00 00 00 	jal 400630 <usage>
  401354:	8c 01 10 00 
  401358:	55 00 00 00 	sll $2,$17,0x2
  40135c:	02 02 11 00 
  401360:	42 00 00 00 	addu $2,$2,$19
  401364:	00 02 13 02 
  401368:	28 00 00 00 	lw $2,0($2)
  40136c:	00 00 02 02 
  401370:	34 00 00 00 	sw $2,64($29)
  401374:	40 00 02 1d 
  401378:	01 00 00 00 	j 4014f0 <parse_switches+0xb80>
  40137c:	3c 05 10 00 
  401380:	42 00 00 00 	addu $4,$0,$16
  401384:	00 04 10 00 
  401388:	43 00 00 00 	addiu $5,$28,-32636
  40138c:	84 80 05 1c 
  401390:	43 00 00 00 	addiu $6,$0,2
  401394:	02 00 06 00 
  401398:	02 00 00 00 	jal 40a130 <keymatch>
  40139c:	4c 28 10 00 
  4013a0:	05 00 00 00 	beq $2,$0,4013f0 <parse_switches+0xa80>
  4013a4:	12 00 00 02 
  4013a8:	43 00 00 00 	addiu $17,$17,1
  4013ac:	01 00 11 11 
  4013b0:	5b 00 00 00 	slt $2,$17,$20
  4013b4:	00 02 14 11 
  4013b8:	06 00 00 00 	bne $2,$0,4013c8 <parse_switches+0xa58>
  4013bc:	02 00 00 02 
  4013c0:	02 00 00 00 	jal 400630 <usage>
  4013c4:	8c 01 10 00 
  4013c8:	55 00 00 00 	sll $2,$17,0x2
  4013cc:	02 02 11 00 
  4013d0:	42 00 00 00 	addu $2,$2,$19
  4013d4:	00 02 13 02 
  4013d8:	28 00 00 00 	lw $2,0($2)
  4013dc:	00 00 02 02 
  4013e0:	34 00 00 00 	sw $2,72($29)
  4013e4:	48 00 02 1d 
  4013e8:	01 00 00 00 	j 4014f0 <parse_switches+0xb80>
  4013ec:	3c 05 10 00 
  4013f0:	42 00 00 00 	addu $4,$0,$16
  4013f4:	00 04 10 00 
  4013f8:	43 00 00 00 	addiu $5,$28,-32628
  4013fc:	8c 80 05 1c 
  401400:	43 00 00 00 	addiu $6,$0,2
  401404:	02 00 06 00 
  401408:	02 00 00 00 	jal 40a130 <keymatch>
  40140c:	4c 28 10 00 
  401410:	05 00 00 00 	beq $2,$0,4014b0 <parse_switches+0xb40>
  401414:	26 00 00 02 
  401418:	43 00 00 00 	addiu $17,$17,1
  40141c:	01 00 11 11 
  401420:	5b 00 00 00 	slt $2,$17,$20
  401424:	00 02 14 11 
  401428:	06 00 00 00 	bne $2,$0,401438 <parse_switches+0xac8>
  40142c:	02 00 00 02 
  401430:	02 00 00 00 	jal 400630 <usage>
  401434:	8c 01 10 00 
  401438:	55 00 00 00 	sll $2,$17,0x2
  40143c:	02 02 11 00 
  401440:	42 00 00 00 	addu $2,$2,$19
  401444:	00 02 13 02 
  401448:	28 00 00 00 	lw $4,0($2)
  40144c:	00 00 04 02 
  401450:	43 00 00 00 	addiu $5,$28,-32672
  401454:	60 80 05 1c 
  401458:	43 00 00 00 	addiu $6,$29,36
  40145c:	24 00 06 1d 
  401460:	02 00 00 00 	jal 423620 <sscanf>
  401464:	88 8d 10 00 
  401468:	05 00 00 00 	beq $2,$21,401478 <parse_switches+0xb08>
  40146c:	02 00 15 02 
  401470:	02 00 00 00 	jal 400630 <usage>
  401474:	8c 01 10 00 
  401478:	28 00 00 00 	lw $2,36($29)
  40147c:	24 00 02 1d 
  401480:	5e 00 00 00 	sltiu $2,$2,101
  401484:	65 00 02 02 
  401488:	06 00 00 00 	bne $2,$0,401498 <parse_switches+0xb28>
  40148c:	02 00 00 02 
  401490:	02 00 00 00 	jal 400630 <usage>
  401494:	8c 01 10 00 
  401498:	28 00 00 00 	lw $2,36($29)
  40149c:	24 00 02 1d 
  4014a0:	34 00 00 00 	sw $2,184($18)
  4014a4:	b8 00 02 12 
  4014a8:	01 00 00 00 	j 4014f0 <parse_switches+0xb80>
  4014ac:	3c 05 10 00 
  4014b0:	42 00 00 00 	addu $4,$0,$16
  4014b4:	00 04 10 00 
  4014b8:	43 00 00 00 	addiu $5,$28,-32620
  4014bc:	94 80 05 1c 
  4014c0:	43 00 00 00 	addiu $6,$0,1
  4014c4:	01 00 06 00 
  4014c8:	02 00 00 00 	jal 40a130 <keymatch>
  4014cc:	4c 28 10 00 
  4014d0:	05 00 00 00 	beq $2,$0,4014e8 <parse_switches+0xb78>
  4014d4:	04 00 00 02 
  4014d8:	34 00 00 00 	sw $21,-31488($28)
  4014dc:	00 85 15 1c 
  4014e0:	01 00 00 00 	j 4014f0 <parse_switches+0xb80>
  4014e4:	3c 05 10 00 
  4014e8:	02 00 00 00 	jal 400630 <usage>
  4014ec:	8c 01 10 00 
  4014f0:	43 00 00 00 	addiu $17,$17,1
  4014f4:	01 00 11 11 
  4014f8:	5b 00 00 00 	slt $2,$17,$20
  4014fc:	00 02 14 11 
  401500:	06 00 00 00 	bne $2,$0,400a78 <parse_switches+0x108>
  401504:	5c fd 00 02 
  401508:	28 00 00 00 	lw $8,136($29)
  40150c:	88 00 08 1d 
  401510:	05 00 00 00 	beq $8,$0,401638 <parse_switches+0xcc8>
  401514:	48 00 00 08 
  401518:	28 00 00 00 	lw $5,24($29)
  40151c:	18 00 05 1d 
  401520:	42 00 00 00 	addu $4,$0,$18
  401524:	00 04 12 00 
  401528:	42 00 00 00 	addu $6,$0,$23
  40152c:	00 06 17 00 
  401530:	02 00 00 00 	jal 40a818 <jpeg_set_quality>
  401534:	06 2a 10 00 
  401538:	05 00 00 00 	beq $22,$0,401578 <parse_switches+0xc08>
  40153c:	0e 00 00 16 
  401540:	42 00 00 00 	addu $4,$0,$18
  401544:	00 04 12 00 
  401548:	28 00 00 00 	lw $6,48($29)
  40154c:	30 00 06 1d 
  401550:	42 00 00 00 	addu $5,$0,$22
  401554:	00 05 16 00 
  401558:	42 00 00 00 	addu $7,$0,$23
  40155c:	00 07 17 00 
  401560:	02 00 00 00 	jal 4092b0 <read_quant_tables>
  401564:	ac 24 10 00 
  401568:	06 00 00 00 	bne $2,$0,401578 <parse_switches+0xc08>
  40156c:	02 00 00 02 
  401570:	02 00 00 00 	jal 400630 <usage>
  401574:	8c 01 10 00 
  401578:	05 00 00 00 	beq $30,$0,4015a8 <parse_switches+0xc38>
  40157c:	0a 00 00 1e 
  401580:	42 00 00 00 	addu $4,$0,$18
  401584:	00 04 12 00 
  401588:	42 00 00 00 	addu $5,$0,$30
  40158c:	00 05 1e 00 
  401590:	02 00 00 00 	jal 409c40 <set_quant_slots>
  401594:	10 27 10 00 
  401598:	06 00 00 00 	bne $2,$0,4015a8 <parse_switches+0xc38>
  40159c:	02 00 00 02 
  4015a0:	02 00 00 00 	jal 400630 <usage>
  4015a4:	8c 01 10 00 
  4015a8:	28 00 00 00 	lw $8,64($29)
  4015ac:	40 00 08 1d 
  4015b0:	05 00 00 00 	beq $8,$0,4015e0 <parse_switches+0xc70>
  4015b4:	0a 00 00 08 
  4015b8:	28 00 00 00 	lw $5,64($29)
  4015bc:	40 00 05 1d 
  4015c0:	42 00 00 00 	addu $4,$0,$18
  4015c4:	00 04 12 00 
  4015c8:	02 00 00 00 	jal 409e58 <set_sample_factors>
  4015cc:	96 27 10 00 
  4015d0:	06 00 00 00 	bne $2,$0,4015e0 <parse_switches+0xc70>
  4015d4:	02 00 00 02 
  4015d8:	02 00 00 00 	jal 400630 <usage>
  4015dc:	8c 01 10 00 
  4015e0:	28 00 00 00 	lw $8,56($29)
  4015e4:	38 00 08 1d 
  4015e8:	05 00 00 00 	beq $8,$0,401600 <parse_switches+0xc90>
  4015ec:	04 00 00 08 
  4015f0:	42 00 00 00 	addu $4,$0,$18
  4015f4:	00 04 12 00 
  4015f8:	02 00 00 00 	jal 40b7f0 <jpeg_simple_progression>
  4015fc:	fc 2d 10 00 
  401600:	28 00 00 00 	lw $8,72($29)
  401604:	48 00 08 1d 
  401608:	05 00 00 00 	beq $8,$0,401638 <parse_switches+0xcc8>
  40160c:	0a 00 00 08 
  401610:	28 00 00 00 	lw $5,72($29)
  401614:	48 00 05 1d 
  401618:	42 00 00 00 	addu $4,$0,$18
  40161c:	00 04 12 00 
  401620:	02 00 00 00 	jal 409710 <read_scan_script>
  401624:	c4 25 10 00 
  401628:	06 00 00 00 	bne $2,$0,401638 <parse_switches+0xcc8>
  40162c:	02 00 00 02 
  401630:	02 00 00 00 	jal 400630 <usage>
  401634:	8c 01 10 00 
  401638:	42 00 00 00 	addu $2,$0,$17
  40163c:	00 02 11 00 
  401640:	28 00 00 00 	lw $31,116($29)
  401644:	74 00 1f 1d 
  401648:	28 00 00 00 	lw $30,112($29)
  40164c:	70 00 1e 1d 
  401650:	28 00 00 00 	lw $23,108($29)
  401654:	6c 00 17 1d 
  401658:	28 00 00 00 	lw $22,104($29)
  40165c:	68 00 16 1d 
  401660:	28 00 00 00 	lw $21,100($29)
  401664:	64 00 15 1d 
  401668:	28 00 00 00 	lw $20,96($29)
  40166c:	60 00 14 1d 
  401670:	28 00 00 00 	lw $19,92($29)
  401674:	5c 00 13 1d 
  401678:	28 00 00 00 	lw $18,88($29)
  40167c:	58 00 12 1d 
  401680:	28 00 00 00 	lw $17,84($29)
  401684:	54 00 11 1d 
  401688:	28 00 00 00 	lw $16,80($29)
  40168c:	50 00 10 1d 
  401690:	43 00 00 00 	addiu $29,$29,120
  401694:	78 00 1d 1d 
  401698:	03 00 00 00 	jr $31
  40169c:	00 00 00 1f 

004016a0 <main>:
  4016a0:	43 00 00 00 	addiu $29,$29,-664
  4016a4:	68 fd 1d 1d 
  4016a8:	34 00 00 00 	sw $17,628($29)
  4016ac:	74 02 11 1d 
  4016b0:	42 00 00 00 	addu $17,$0,$4
  4016b4:	00 11 04 00 
  4016b8:	34 00 00 00 	sw $18,632($29)
  4016bc:	78 02 12 1d 
  4016c0:	42 00 00 00 	addu $18,$0,$5
  4016c4:	00 12 05 00 
  4016c8:	34 00 00 00 	sw $31,660($29)
  4016cc:	94 02 1f 1d 
  4016d0:	34 00 00 00 	sw $30,656($29)
  4016d4:	90 02 1e 1d 
  4016d8:	34 00 00 00 	sw $23,652($29)
  4016dc:	8c 02 17 1d 
  4016e0:	34 00 00 00 	sw $22,648($29)
  4016e4:	88 02 16 1d 
  4016e8:	34 00 00 00 	sw $21,644($29)
  4016ec:	84 02 15 1d 
  4016f0:	34 00 00 00 	sw $20,640($29)
  4016f4:	80 02 14 1d 
  4016f8:	34 00 00 00 	sw $19,636($29)
  4016fc:	7c 02 13 1d 
  401700:	34 00 00 00 	sw $16,624($29)
  401704:	70 02 10 1d 
  401708:	02 00 00 00 	jal 4212a8 <__main>
  40170c:	aa 84 10 00 
  401710:	43 00 00 00 	addiu $17,$17,-1
  401714:	ff ff 11 11 
  401718:	55 00 00 00 	sll $16,$17,0x2
  40171c:	02 10 11 00 
  401720:	42 00 00 00 	addu $16,$16,$18
  401724:	00 10 12 10 
  401728:	28 00 00 00 	lw $4,0($16)
  40172c:	00 00 04 10 
  401730:	42 00 00 00 	addu $5,$0,$0
  401734:	00 05 00 00 
  401738:	43 00 00 00 	addiu $6,$0,10
  40173c:	0a 00 06 00 
  401740:	02 00 00 00 	jal 423670 <strtol>
  401744:	9c 8d 10 00 
  401748:	28 00 00 00 	lw $3,-32760($28)
  40174c:	08 80 03 1c 
  401750:	34 00 00 00 	sw $2,0($3)
  401754:	00 00 02 03 
  401758:	28 00 00 00 	lw $2,0($16)
  40175c:	00 00 02 10 
  401760:	30 00 00 00 	sb $0,0($2)
  401764:	00 00 00 02 
  401768:	28 00 00 00 	lw $2,0($18)
  40176c:	00 00 02 12 
  401770:	34 00 00 00 	sw $2,-31484($28)
  401774:	04 85 02 1c 
  401778:	05 00 00 00 	beq $2,$0,401790 <main+0xf0>
  40177c:	04 00 00 02 
  401780:	20 00 00 00 	lb $2,0($2)
  401784:	00 00 02 02 
  401788:	06 00 00 00 	bne $2,$0,4017a0 <main+0x100>
  40178c:	04 00 00 02 
  401790:	43 00 00 00 	addiu $2,$28,-32612
  401794:	9c 80 02 1c 
  401798:	34 00 00 00 	sw $2,-31484($28)
  40179c:	04 85 02 1c 
  4017a0:	43 00 00 00 	addiu $4,$29,384
  4017a4:	80 01 04 1d 
  4017a8:	02 00 00 00 	jal 40c110 <jpeg_std_error>
  4017ac:	44 30 10 00 
  4017b0:	43 00 00 00 	addiu $4,$29,24
  4017b4:	18 00 04 1d 
  4017b8:	43 00 00 00 	addiu $5,$0,61
  4017bc:	3d 00 05 00 
  4017c0:	43 00 00 00 	addiu $6,$0,360
  4017c4:	68 01 06 00 
  4017c8:	34 00 00 00 	sw $2,24($29)
  4017cc:	18 00 02 1d 
  4017d0:	02 00 00 00 	jal 40c1f0 <jpeg_CreateCompress>
  4017d4:	7c 30 10 00 
  4017d8:	a2 00 00 00 	lui $2,4096
  4017dc:	00 10 02 00 
  4017e0:	43 00 00 00 	addiu $2,$2,0
  4017e4:	00 00 02 02 
  4017e8:	34 00 00 00 	sw $2,504($29)
  4017ec:	f8 01 02 1d 
  4017f0:	43 00 00 00 	addiu $2,$0,1000
  4017f4:	e8 03 02 00 
  4017f8:	34 00 00 00 	sw $2,508($29)
  4017fc:	fc 01 02 1d 
  401800:	43 00 00 00 	addiu $2,$0,1043
  401804:	13 04 02 00 
  401808:	34 00 00 00 	sw $2,512($29)
  40180c:	00 02 02 1d 
  401810:	43 00 00 00 	addiu $2,$0,2
  401814:	02 00 02 00 
  401818:	43 00 00 00 	addiu $4,$29,24
  40181c:	18 00 04 1d 
  401820:	34 00 00 00 	sw $2,60($29)
  401824:	3c 00 02 1d 
  401828:	02 00 00 00 	jal 40ac28 <jpeg_set_defaults>
  40182c:	0a 2b 10 00 
  401830:	43 00 00 00 	addiu $4,$29,24
  401834:	18 00 04 1d 
  401838:	42 00 00 00 	addu $5,$0,$17
  40183c:	00 05 11 00 
  401840:	42 00 00 00 	addu $6,$0,$18
  401844:	00 06 12 00 
  401848:	42 00 00 00 	addu $7,$0,$0
  40184c:	00 07 00 00 
  401850:	34 00 00 00 	sw $0,16($29)
  401854:	10 00 00 1d 
  401858:	02 00 00 00 	jal 400970 <parse_switches>
  40185c:	5c 02 10 00 
  401860:	42 00 00 00 	addu $16,$0,$2
  401864:	00 10 02 00 
  401868:	43 00 00 00 	addiu $2,$17,-1
  40186c:	ff ff 02 11 
  401870:	5b 00 00 00 	slt $2,$16,$2
  401874:	00 02 02 10 
  401878:	05 00 00 00 	beq $2,$0,4018b0 <main+0x210>
  40187c:	0c 00 00 02 
  401880:	28 00 00 00 	lw $4,-32424($28)
  401884:	58 81 04 1c 
  401888:	28 00 00 00 	lw $6,-31484($28)
  40188c:	04 85 06 1c 
  401890:	a2 00 00 00 	lui $5,4096
  401894:	00 10 05 00 
  401898:	43 00 00 00 	addiu $5,$5,2968
  40189c:	98 0b 05 05 
  4018a0:	02 00 00 00 	jal 4235d0 <fprintf>
  4018a4:	74 8d 10 00 
  4018a8:	02 00 00 00 	jal 400630 <usage>
  4018ac:	8c 01 10 00 
  4018b0:	5b 00 00 00 	slt $2,$16,$17
  4018b4:	00 02 11 10 
  4018b8:	05 00 00 00 	beq $2,$0,401938 <main+0x298>
  4018bc:	1e 00 00 02 
  4018c0:	55 00 00 00 	sll $2,$16,0x2
  4018c4:	02 02 10 00 
  4018c8:	42 00 00 00 	addu $16,$2,$18
  4018cc:	00 10 12 02 
  4018d0:	28 00 00 00 	lw $4,0($16)
  4018d4:	00 00 04 10 
  4018d8:	43 00 00 00 	addiu $5,$28,-32604
  4018dc:	a4 80 05 1c 
  4018e0:	02 00 00 00 	jal 423cd8 <fopen>
  4018e4:	36 8f 10 00 
  4018e8:	34 00 00 00 	sw $2,520($29)
  4018ec:	08 02 02 1d 
  4018f0:	06 00 00 00 	bne $2,$0,401948 <main+0x2a8>
  4018f4:	14 00 00 02 
  4018f8:	28 00 00 00 	lw $4,-32424($28)
  4018fc:	58 81 04 1c 
  401900:	28 00 00 00 	lw $6,-31484($28)
  401904:	04 85 06 1c 
  401908:	28 00 00 00 	lw $7,0($16)
  40190c:	00 00 07 10 
  401910:	a2 00 00 00 	lui $5,4096
  401914:	00 10 05 00 
  401918:	43 00 00 00 	addiu $5,$5,2996
  40191c:	b4 0b 05 05 
  401920:	02 00 00 00 	jal 4235d0 <fprintf>
  401924:	74 8d 10 00 
  401928:	43 00 00 00 	addiu $4,$0,1
  40192c:	01 00 04 00 
  401930:	02 00 00 00 	jal 421420 <exit>
  401934:	08 85 10 00 
  401938:	02 00 00 00 	jal 40a210 <read_stdin>
  40193c:	84 28 10 00 
  401940:	34 00 00 00 	sw $2,520($29)
  401944:	08 02 02 1d 
  401948:	28 00 00 00 	lw $4,-31480($28)
  40194c:	08 85 04 1c 
  401950:	05 00 00 00 	beq $4,$0,4019b8 <main+0x318>
  401954:	18 00 00 04 
  401958:	43 00 00 00 	addiu $5,$28,-32600
  40195c:	a8 80 05 1c 
  401960:	02 00 00 00 	jal 423cd8 <fopen>
  401964:	36 8f 10 00 
  401968:	34 00 00 00 	sw $2,528($29)
  40196c:	10 02 02 1d 
  401970:	06 00 00 00 	bne $2,$0,4019c8 <main+0x328>
  401974:	14 00 00 02 
  401978:	28 00 00 00 	lw $4,-32424($28)
  40197c:	58 81 04 1c 
  401980:	28 00 00 00 	lw $6,-31484($28)
  401984:	04 85 06 1c 
  401988:	28 00 00 00 	lw $7,-31480($28)
  40198c:	08 85 07 1c 
  401990:	a2 00 00 00 	lui $5,4096
  401994:	00 10 05 00 
  401998:	43 00 00 00 	addiu $5,$5,2996
  40199c:	b4 0b 05 05 
  4019a0:	02 00 00 00 	jal 4235d0 <fprintf>
  4019a4:	74 8d 10 00 
  4019a8:	43 00 00 00 	addiu $4,$0,1
  4019ac:	01 00 04 00 
  4019b0:	02 00 00 00 	jal 421420 <exit>
  4019b4:	08 85 10 00 
  4019b8:	02 00 00 00 	jal 40a220 <write_stdout>
  4019bc:	88 28 10 00 
  4019c0:	34 00 00 00 	sw $2,528($29)
  4019c4:	10 02 02 1d 
  4019c8:	28 00 00 00 	lw $5,520($29)
  4019cc:	08 02 05 1d 
  4019d0:	43 00 00 00 	addiu $4,$29,24
  4019d4:	18 00 04 1d 
  4019d8:	02 00 00 00 	jal 4003b0 <select_file_type>
  4019dc:	ec 00 10 00 
  4019e0:	42 00 00 00 	addu $21,$0,$2
  4019e4:	00 15 02 00 
  4019e8:	28 00 00 00 	lw $8,520($29)
  4019ec:	08 02 08 1d 
  4019f0:	28 00 00 00 	lw $2,0($21)
  4019f4:	00 00 02 15 
  4019f8:	43 00 00 00 	addiu $4,$29,24
  4019fc:	18 00 04 1d 
  401a00:	42 00 00 00 	addu $5,$0,$21
  401a04:	00 05 15 00 
  401a08:	34 00 00 00 	sw $8,12($21)
  401a0c:	0c 00 08 15 
  401a10:	04 00 00 00 	jalr $31,$2
  401a14:	00 1f 00 02 
  401a18:	43 00 00 00 	addiu $4,$29,24
  401a1c:	18 00 04 1d 
  401a20:	02 00 00 00 	jal 40ae48 <jpeg_default_colorspace>
  401a24:	92 2b 10 00 
  401a28:	43 00 00 00 	addiu $16,$0,1
  401a2c:	01 00 10 00 
  401a30:	43 00 00 00 	addiu $4,$29,24
  401a34:	18 00 04 1d 
  401a38:	42 00 00 00 	addu $5,$0,$17
  401a3c:	00 05 11 00 
  401a40:	42 00 00 00 	addu $6,$0,$18
  401a44:	00 06 12 00 
  401a48:	42 00 00 00 	addu $7,$0,$0
  401a4c:	00 07 00 00 
  401a50:	34 00 00 00 	sw $16,16($29)
  401a54:	10 00 10 1d 
  401a58:	02 00 00 00 	jal 400970 <parse_switches>
  401a5c:	5c 02 10 00 
  401a60:	28 00 00 00 	lw $5,528($29)
  401a64:	10 02 05 1d 
  401a68:	43 00 00 00 	addiu $4,$29,24
  401a6c:	18 00 04 1d 
  401a70:	02 00 00 00 	jal 40cda0 <jpeg_stdio_dest>
  401a74:	68 33 10 00 
  401a78:	43 00 00 00 	addiu $4,$29,24
  401a7c:	18 00 04 1d 
  401a80:	43 00 00 00 	addiu $5,$0,1
  401a84:	01 00 05 00 
  401a88:	02 00 00 00 	jal 40ce90 <jpeg_start_compress>
  401a8c:	a4 33 10 00 
  401a90:	28 00 00 00 	lw $3,-32764($28)
  401a94:	04 80 03 1c 
  401a98:	43 00 00 00 	addiu $2,$0,1
  401a9c:	01 00 02 00 
  401aa0:	a2 00 00 00 	lui $4,4096
  401aa4:	00 10 04 00 
  401aa8:	43 00 00 00 	addiu $4,$4,3016
  401aac:	c8 0b 04 04 
  401ab0:	30 00 00 00 	sb $2,0($3)
  401ab4:	00 00 02 03 
  401ab8:	02 00 00 00 	jal 421600 <printf>
  401abc:	80 85 10 00 
  401ac0:	28 00 00 00 	lw $4,-32428($28)
  401ac4:	54 81 04 1c 
  401ac8:	02 00 00 00 	jal 421670 <fflush>
  401acc:	9c 85 10 00 
  401ad0:	42 00 00 00 	addu $4,$0,$21
  401ad4:	00 04 15 00 
  401ad8:	02 00 00 00 	jal 4039b0 <get_buffer_width>
  401adc:	6c 0e 10 00 
  401ae0:	02 00 00 00 	jal 4039c0 <get_image_size>
  401ae4:	70 0e 10 00 
  401ae8:	34 00 00 00 	sw $2,536($29)
  401aec:	18 02 02 1d 
  401af0:	55 00 00 00 	sll $4,$2,0x2
  401af4:	02 04 02 00 
  401af8:	02 00 00 00 	jal 4243a8 <malloc>
  401afc:	ea 90 10 00 
  401b00:	02 00 00 00 	jal 4039d0 <get_local_image>
  401b04:	74 0e 10 00 
  401b08:	34 00 00 00 	sw $2,544($29)
  401b0c:	20 02 02 1d 
  401b10:	02 00 00 00 	jal 400268 <init_IT>
  401b14:	9a 00 10 00 
  401b18:	28 00 00 00 	lw $2,-32760($28)
  401b1c:	08 80 02 1c 
  401b20:	28 00 00 00 	lw $3,0($2)
  401b24:	00 00 03 02 
  401b28:	42 00 00 00 	addu $20,$0,$0
  401b2c:	00 14 00 00 
  401b30:	43 00 00 00 	addiu $2,$0,2
  401b34:	02 00 02 00 
  401b38:	05 00 00 00 	beq $3,$2,401fb8 <main+0x918>
  401b3c:	1e 01 02 03 
  401b40:	5c 00 00 00 	slti $2,$3,3
  401b44:	03 00 02 03 
  401b48:	05 00 00 00 	beq $2,$0,401b60 <main+0x4c0>
  401b4c:	04 00 00 02 
  401b50:	05 00 00 00 	beq $3,$16,401b88 <main+0x4e8>
  401b54:	0c 00 10 03 
  401b58:	01 00 00 00 	j 402ed8 <main+0x1838>
  401b5c:	b6 0b 10 00 
  401b60:	43 00 00 00 	addiu $2,$0,4
  401b64:	04 00 02 00 
  401b68:	05 00 00 00 	beq $3,$2,402560 <main+0xec0>
  401b6c:	7c 02 02 03 
  401b70:	43 00 00 00 	addiu $2,$0,8
  401b74:	08 00 02 00 
  401b78:	05 00 00 00 	beq $3,$2,402a18 <main+0x1378>
  401b7c:	a6 03 02 03 
  401b80:	01 00 00 00 	j 402ed8 <main+0x1838>
  401b84:	b6 0b 10 00 
  401b88:	28 00 00 00 	lw $4,-32748($28)
  401b8c:	14 80 04 1c 
  401b90:	28 00 00 00 	lw $2,32($21)
  401b94:	20 00 02 15 
  401b98:	55 00 00 00 	sll $4,$4,0x2
  401b9c:	02 04 04 00 
  401ba0:	46 00 00 00 	mult $4,$2
  401ba4:	00 00 02 04 
  401ba8:	4c 00 00 00 	mflo $4
  401bac:	00 04 00 00 
  401bb0:	43 00 00 00 	addiu $5,$0,1
  401bb4:	01 00 05 00 
  401bb8:	02 00 00 00 	jal 424d30 <calloc>
  401bbc:	4c 93 10 00 
  401bc0:	42 00 00 00 	addu $23,$0,$2
  401bc4:	00 17 02 00 
  401bc8:	28 00 00 00 	lw $4,-32748($28)
  401bcc:	14 80 04 1c 
  401bd0:	28 00 00 00 	lw $2,32($21)
  401bd4:	20 00 02 15 
  401bd8:	55 00 00 00 	sll $4,$4,0x2
  401bdc:	02 04 04 00 
  401be0:	46 00 00 00 	mult $4,$2
  401be4:	00 00 02 04 
  401be8:	4c 00 00 00 	mflo $4
  401bec:	00 04 00 00 
  401bf0:	43 00 00 00 	addiu $5,$0,1
  401bf4:	01 00 05 00 
  401bf8:	02 00 00 00 	jal 424d30 <calloc>
  401bfc:	4c 93 10 00 
  401c00:	42 00 00 00 	addu $22,$0,$2
  401c04:	00 16 02 00 
  401c08:	28 00 00 00 	lw $2,32($21)
  401c0c:	20 00 02 15 
  401c10:	28 00 00 00 	lw $3,-32748($28)
  401c14:	14 80 03 1c 
  401c18:	46 00 00 00 	mult $2,$3
  401c1c:	00 00 03 02 
  401c20:	4c 00 00 00 	mflo $2
  401c24:	00 02 00 00 
  401c28:	42 00 00 00 	addu $18,$0,$21
  401c2c:	00 12 15 00 
  401c30:	42 00 00 00 	addu $4,$0,$0
  401c34:	00 04 00 00 
  401c38:	42 00 00 00 	addu $19,$0,$0
  401c3c:	00 13 00 00 
  401c40:	05 00 00 00 	beq $2,$0,401ca0 <main+0x600>
  401c44:	16 00 00 02 
  401c48:	42 00 00 00 	addu $2,$23,$4
  401c4c:	00 02 04 17 
  401c50:	30 00 00 00 	sb $0,0($2)
  401c54:	00 00 00 02 
  401c58:	42 00 00 00 	addu $2,$22,$4
  401c5c:	00 02 04 16 
  401c60:	30 00 00 00 	sb $0,0($2)
  401c64:	00 00 00 02 
  401c68:	28 00 00 00 	lw $2,32($18)
  401c6c:	20 00 02 12 
  401c70:	28 00 00 00 	lw $3,-32748($28)
  401c74:	14 80 03 1c 
  401c78:	46 00 00 00 	mult $2,$3
  401c7c:	00 00 03 02 
  401c80:	4c 00 00 00 	mflo $2
  401c84:	00 02 00 00 
  401c88:	43 00 00 00 	addiu $4,$4,1
  401c8c:	01 00 04 04 
  401c90:	5d 00 00 00 	sltu $2,$4,$2
  401c94:	00 02 02 04 
  401c98:	06 00 00 00 	bne $2,$0,401c48 <main+0x5a8>
  401c9c:	ea ff 00 02 
  401ca0:	28 00 00 00 	lw $2,240($29)
  401ca4:	f0 00 02 1d 
  401ca8:	28 00 00 00 	lw $3,52($29)
  401cac:	34 00 03 1d 
  401cb0:	5d 00 00 00 	sltu $2,$2,$3
  401cb4:	00 02 03 02 
  401cb8:	05 00 00 00 	beq $2,$0,402ed8 <main+0x1838>
  401cbc:	86 04 00 02 
  401cc0:	28 00 00 00 	lw $8,536($29)
  401cc4:	18 02 08 1d 
  401cc8:	5b 00 00 00 	slt $2,$20,$8
  401ccc:	00 02 08 14 
  401cd0:	05 00 00 00 	beq $2,$0,401e40 <main+0x7a0>
  401cd4:	5a 00 00 02 
  401cd8:	28 00 00 00 	lw $30,-32756($28)
  401cdc:	0c 80 1e 1c 
  401ce0:	43 00 00 00 	addiu $4,$0,4
  401ce4:	04 00 04 00 
  401ce8:	02 00 00 00 	jal 4243a8 <malloc>
  401cec:	ea 90 10 00 
  401cf0:	28 00 00 00 	lw $2,-32752($28)
  401cf4:	10 80 02 1c 
  401cf8:	28 00 00 00 	lw $8,544($29)
  401cfc:	20 02 08 1d 
  401d00:	43 00 00 00 	addiu $2,$2,-1
  401d04:	ff ff 02 02 
  401d08:	55 00 00 00 	sll $3,$2,0x3
  401d0c:	03 03 02 00 
  401d10:	45 00 00 00 	subu $3,$3,$2
  401d14:	00 03 02 03 
  401d18:	55 00 00 00 	sll $3,$3,0x2
  401d1c:	02 03 03 00 
  401d20:	a2 00 00 00 	lui $2,36864
  401d24:	00 90 02 00 
  401d28:	42 00 00 00 	addu $4,$3,$2
  401d2c:	00 04 02 03 
  401d30:	42 00 00 00 	addu $2,$8,$20
  401d34:	00 02 14 08 
  401d38:	43 00 00 00 	addiu $8,$0,1
  401d3c:	01 00 08 00 
  401d40:	34 00 00 00 	sw $2,0($4)
  401d44:	00 00 02 04 
  401d48:	34 00 00 00 	sw $8,4($4)
  401d4c:	04 00 08 04 
  401d50:	28 00 00 00 	lw $2,32($18)
  401d54:	20 00 02 12 
  401d58:	28 00 00 00 	lw $3,-32748($28)
  401d5c:	14 80 03 1c 
  401d60:	46 00 00 00 	mult $2,$3
  401d64:	00 00 03 02 
  401d68:	4c 00 00 00 	mflo $2
  401d6c:	00 02 00 00 
  401d70:	34 00 00 00 	sw $2,8($4)
  401d74:	08 00 02 04 
  401d78:	28 00 00 00 	lw $2,-32752($28)
  401d7c:	10 80 02 1c 
  401d80:	34 00 00 00 	sw $0,12($4)
  401d84:	0c 00 00 04 
  401d88:	34 00 00 00 	sw $2,16($4)
  401d8c:	10 00 02 04 
  401d90:	06 00 00 00 	bne $19,$0,401da8 <main+0x708>
  401d94:	04 00 00 13 
  401d98:	34 00 00 00 	sw $23,20($4)
  401d9c:	14 00 17 04 
  401da0:	01 00 00 00 	j 401db0 <main+0x710>
  401da4:	6c 07 10 00 
  401da8:	34 00 00 00 	sw $22,20($4)
  401dac:	14 00 16 04 
  401db0:	43 00 00 00 	addiu $8,$0,1
  401db4:	01 00 08 00 
  401db8:	34 00 00 00 	sw $8,24($4)
  401dbc:	18 00 08 04 
  401dc0:	43 00 00 00 	addiu $4,$0,4
  401dc4:	04 00 04 00 
  401dc8:	02 00 00 00 	jal 4243a8 <malloc>
  401dcc:	ea 90 10 00 
  401dd0:	28 00 00 00 	lw $2,-32752($28)
  401dd4:	10 80 02 1c 
  401dd8:	a2 00 00 00 	lui $1,36864
  401ddc:	00 90 01 00 
  401de0:	34 00 00 00 	sw $2,256($1)
  401de4:	00 01 02 01 
  401de8:	06 00 00 00 	bne $20,$0,401e18 <main+0x778>
  401dec:	0a 00 00 14 
  401df0:	28 00 00 00 	lw $3,32($18)
  401df4:	20 00 03 12 
  401df8:	28 00 00 00 	lw $2,-32748($28)
  401dfc:	14 80 02 1c 
  401e00:	46 00 00 00 	mult $3,$2
  401e04:	00 00 02 03 
  401e08:	4c 00 00 00 	mflo $20
  401e0c:	00 14 00 00 
  401e10:	01 00 00 00 	j 401e40 <main+0x7a0>
  401e14:	90 07 10 00 
  401e18:	28 00 00 00 	lw $2,32($18)
  401e1c:	20 00 02 12 
  401e20:	28 00 00 00 	lw $3,-32748($28)
  401e24:	14 80 03 1c 
  401e28:	46 00 00 00 	mult $2,$3
  401e2c:	00 00 03 02 
  401e30:	4c 00 00 00 	mflo $2
  401e34:	00 02 00 00 
  401e38:	42 00 00 00 	addu $20,$20,$2
  401e3c:	00 14 02 14 
  401e40:	28 00 00 00 	lw $2,-32756($28)
  401e44:	0c 80 02 1c 
  401e48:	06 00 00 00 	bne $2,$0,401e70 <main+0x7d0>
  401e4c:	08 00 00 02 
  401e50:	28 00 00 00 	lw $2,-32756($28)
  401e54:	0c 80 02 1c 
  401e58:	05 00 00 00 	beq $2,$0,401e50 <main+0x7b0>
  401e5c:	fc ff 00 02 
  401e60:	43 00 00 00 	addiu $19,$0,1
  401e64:	01 00 13 00 
  401e68:	01 00 00 00 	j 401f90 <main+0x8f0>
  401e6c:	e4 07 10 00 
  401e70:	28 00 00 00 	lw $2,-32748($28)
  401e74:	14 80 02 1c 
  401e78:	43 00 00 00 	addiu $17,$0,1
  401e7c:	01 00 11 00 
  401e80:	42 00 00 00 	addu $16,$0,$0
  401e84:	00 10 00 00 
  401e88:	07 00 00 00 	blez $2,401f38 <main+0x898>
  401e8c:	2a 00 00 02 
  401e90:	43 00 00 00 	addiu $8,$0,1
  401e94:	01 00 08 00 
  401e98:	06 00 00 00 	bne $19,$8,401ec8 <main+0x828>
  401e9c:	0a 00 08 13 
  401ea0:	28 00 00 00 	lw $2,32($18)
  401ea4:	20 00 02 12 
  401ea8:	46 00 00 00 	mult $16,$2
  401eac:	00 00 02 10 
  401eb0:	4c 00 00 00 	mflo $2
  401eb4:	00 02 00 00 
  401eb8:	42 00 00 00 	addu $2,$23,$2
  401ebc:	00 02 02 17 
  401ec0:	01 00 00 00 	j 401ee8 <main+0x848>
  401ec4:	ba 07 10 00 
  401ec8:	28 00 00 00 	lw $2,32($18)
  401ecc:	20 00 02 12 
  401ed0:	46 00 00 00 	mult $16,$2
  401ed4:	00 00 02 10 
  401ed8:	4c 00 00 00 	mflo $2
  401edc:	00 02 00 00 
  401ee0:	42 00 00 00 	addu $2,$22,$2
  401ee4:	00 02 02 16 
  401ee8:	34 00 00 00 	sw $2,24($18)
  401eec:	18 00 02 12 
  401ef0:	34 00 00 00 	sw $2,28($18)
  401ef4:	1c 00 02 12 
  401ef8:	28 00 00 00 	lw $5,16($21)
  401efc:	10 00 05 15 
  401f00:	43 00 00 00 	addiu $4,$29,24
  401f04:	18 00 04 1d 
  401f08:	42 00 00 00 	addu $6,$0,$17
  401f0c:	00 06 11 00 
  401f10:	02 00 00 00 	jal 40d008 <jpeg_write_scanlines>
  401f14:	02 34 10 00 
  401f18:	28 00 00 00 	lw $2,-32748($28)
  401f1c:	14 80 02 1c 
  401f20:	43 00 00 00 	addiu $16,$16,1
  401f24:	01 00 10 10 
  401f28:	5b 00 00 00 	slt $2,$16,$2
  401f2c:	00 02 02 10 
  401f30:	06 00 00 00 	bne $2,$0,401e90 <main+0x7f0>
  401f34:	d6 ff 00 02 
  401f38:	28 00 00 00 	lw $2,-32756($28)
  401f3c:	0c 80 02 1c 
  401f40:	5b 00 00 00 	slt $2,$30,$2
  401f44:	00 02 02 1e 
  401f48:	05 00 00 00 	beq $2,$0,401f38 <main+0x898>
  401f4c:	fa ff 00 02 
  401f50:	06 00 00 00 	bne $19,$0,401f68 <main+0x8c8>
  401f54:	04 00 00 13 
  401f58:	43 00 00 00 	addiu $19,$0,1
  401f5c:	01 00 13 00 
  401f60:	01 00 00 00 	j 401f70 <main+0x8d0>
  401f64:	dc 07 10 00 
  401f68:	42 00 00 00 	addu $19,$0,$0
  401f6c:	00 13 00 00 
  401f70:	a2 00 00 00 	lui $4,4096
  401f74:	00 10 04 00 
  401f78:	43 00 00 00 	addiu $4,$4,3036
  401f7c:	dc 0b 04 04 
  401f80:	42 00 00 00 	addu $5,$0,$30
  401f84:	00 05 1e 00 
  401f88:	02 00 00 00 	jal 421600 <printf>
  401f8c:	80 85 10 00 
  401f90:	28 00 00 00 	lw $2,240($29)
  401f94:	f0 00 02 1d 
  401f98:	28 00 00 00 	lw $3,52($29)
  401f9c:	34 00 03 1d 
  401fa0:	5d 00 00 00 	sltu $2,$2,$3
  401fa4:	00 02 03 02 
  401fa8:	06 00 00 00 	bne $2,$0,401cc0 <main+0x620>
  401fac:	44 ff 00 02 
  401fb0:	01 00 00 00 	j 402ed8 <main+0x1838>
  401fb4:	b6 0b 10 00 
  401fb8:	28 00 00 00 	lw $4,-32748($28)
  401fbc:	14 80 04 1c 
  401fc0:	28 00 00 00 	lw $2,32($21)
  401fc4:	20 00 02 15 
  401fc8:	55 00 00 00 	sll $4,$4,0x2
  401fcc:	02 04 04 00 
  401fd0:	46 00 00 00 	mult $4,$2
  401fd4:	00 00 02 04 
  401fd8:	4c 00 00 00 	mflo $4
  401fdc:	00 04 00 00 
  401fe0:	43 00 00 00 	addiu $5,$0,1
  401fe4:	01 00 05 00 
  401fe8:	02 00 00 00 	jal 424d30 <calloc>
  401fec:	4c 93 10 00 
  401ff0:	42 00 00 00 	addu $23,$0,$2
  401ff4:	00 17 02 00 
  401ff8:	28 00 00 00 	lw $4,-32748($28)
  401ffc:	14 80 04 1c 
  402000:	28 00 00 00 	lw $2,32($21)
  402004:	20 00 02 15 
  402008:	55 00 00 00 	sll $4,$4,0x2
  40200c:	02 04 04 00 
  402010:	46 00 00 00 	mult $4,$2
  402014:	00 00 02 04 
  402018:	4c 00 00 00 	mflo $4
  40201c:	00 04 00 00 
  402020:	43 00 00 00 	addiu $5,$0,1
  402024:	01 00 05 00 
  402028:	02 00 00 00 	jal 424d30 <calloc>
  40202c:	4c 93 10 00 
  402030:	42 00 00 00 	addu $22,$0,$2
  402034:	00 16 02 00 
  402038:	28 00 00 00 	lw $2,32($21)
  40203c:	20 00 02 15 
  402040:	28 00 00 00 	lw $3,-32748($28)
  402044:	14 80 03 1c 
  402048:	46 00 00 00 	mult $2,$3
  40204c:	00 00 03 02 
  402050:	4c 00 00 00 	mflo $2
  402054:	00 02 00 00 
  402058:	42 00 00 00 	addu $18,$0,$21
  40205c:	00 12 15 00 
  402060:	42 00 00 00 	addu $4,$0,$0
  402064:	00 04 00 00 
  402068:	42 00 00 00 	addu $19,$0,$0
  40206c:	00 13 00 00 
  402070:	05 00 00 00 	beq $2,$0,4020d0 <main+0xa30>
  402074:	16 00 00 02 
  402078:	42 00 00 00 	addu $2,$23,$4
  40207c:	00 02 04 17 
  402080:	30 00 00 00 	sb $0,0($2)
  402084:	00 00 00 02 
  402088:	42 00 00 00 	addu $2,$22,$4
  40208c:	00 02 04 16 
  402090:	30 00 00 00 	sb $0,0($2)
  402094:	00 00 00 02 
  402098:	28 00 00 00 	lw $2,32($18)
  40209c:	20 00 02 12 
  4020a0:	28 00 00 00 	lw $3,-32748($28)
  4020a4:	14 80 03 1c 
  4020a8:	46 00 00 00 	mult $2,$3
  4020ac:	00 00 03 02 
  4020b0:	4c 00 00 00 	mflo $2
  4020b4:	00 02 00 00 
  4020b8:	43 00 00 00 	addiu $4,$4,1
  4020bc:	01 00 04 04 
  4020c0:	5d 00 00 00 	sltu $2,$4,$2
  4020c4:	00 02 02 04 
  4020c8:	06 00 00 00 	bne $2,$0,402078 <main+0x9d8>
  4020cc:	ea ff 00 02 
  4020d0:	28 00 00 00 	lw $3,52($29)
  4020d4:	34 00 03 1d 
  4020d8:	28 00 00 00 	lw $2,240($29)
  4020dc:	f0 00 02 1d 
  4020e0:	57 00 00 00 	srl $3,$3,0x1
  4020e4:	01 03 03 00 
  4020e8:	5d 00 00 00 	sltu $2,$2,$3
  4020ec:	00 02 03 02 
  4020f0:	05 00 00 00 	beq $2,$0,402500 <main+0xe60>
  4020f4:	02 01 00 02 
  4020f8:	28 00 00 00 	lw $8,536($29)
  4020fc:	18 02 08 1d 
  402100:	57 00 00 00 	srl $2,$8,0x1f
  402104:	1f 02 08 00 
  402108:	42 00 00 00 	addu $2,$8,$2
  40210c:	00 02 02 08 
  402110:	59 00 00 00 	sra $2,$2,0x1
  402114:	01 02 02 00 
  402118:	34 00 00 00 	sw $2,552($29)
  40211c:	28 02 02 1d 
  402120:	28 00 00 00 	lw $8,552($29)
  402124:	28 02 08 1d 
  402128:	5b 00 00 00 	slt $2,$20,$8
  40212c:	00 02 08 14 
  402130:	05 00 00 00 	beq $2,$0,4022a0 <main+0xc00>
  402134:	5a 00 00 02 
  402138:	28 00 00 00 	lw $30,-32756($28)
  40213c:	0c 80 1e 1c 
  402140:	43 00 00 00 	addiu $4,$0,4
  402144:	04 00 04 00 
  402148:	02 00 00 00 	jal 4243a8 <malloc>
  40214c:	ea 90 10 00 
  402150:	28 00 00 00 	lw $2,-32752($28)
  402154:	10 80 02 1c 
  402158:	28 00 00 00 	lw $8,544($29)
  40215c:	20 02 08 1d 
  402160:	43 00 00 00 	addiu $2,$2,-1
  402164:	ff ff 02 02 
  402168:	55 00 00 00 	sll $3,$2,0x3
  40216c:	03 03 02 00 
  402170:	45 00 00 00 	subu $3,$3,$2
  402174:	00 03 02 03 
  402178:	55 00 00 00 	sll $3,$3,0x2
  40217c:	02 03 03 00 
  402180:	a2 00 00 00 	lui $2,36864
  402184:	00 90 02 00 
  402188:	42 00 00 00 	addu $4,$3,$2
  40218c:	00 04 02 03 
  402190:	42 00 00 00 	addu $2,$8,$20
  402194:	00 02 14 08 
  402198:	43 00 00 00 	addiu $8,$0,1
  40219c:	01 00 08 00 
  4021a0:	34 00 00 00 	sw $2,0($4)
  4021a4:	00 00 02 04 
  4021a8:	34 00 00 00 	sw $8,4($4)
  4021ac:	04 00 08 04 
  4021b0:	28 00 00 00 	lw $2,32($18)
  4021b4:	20 00 02 12 
  4021b8:	28 00 00 00 	lw $3,-32748($28)
  4021bc:	14 80 03 1c 
  4021c0:	46 00 00 00 	mult $2,$3
  4021c4:	00 00 03 02 
  4021c8:	4c 00 00 00 	mflo $2
  4021cc:	00 02 00 00 
  4021d0:	34 00 00 00 	sw $2,8($4)
  4021d4:	08 00 02 04 
  4021d8:	28 00 00 00 	lw $2,-32752($28)
  4021dc:	10 80 02 1c 
  4021e0:	34 00 00 00 	sw $0,12($4)
  4021e4:	0c 00 00 04 
  4021e8:	34 00 00 00 	sw $2,16($4)
  4021ec:	10 00 02 04 
  4021f0:	06 00 00 00 	bne $19,$0,402208 <main+0xb68>
  4021f4:	04 00 00 13 
  4021f8:	34 00 00 00 	sw $23,20($4)
  4021fc:	14 00 17 04 
  402200:	01 00 00 00 	j 402210 <main+0xb70>
  402204:	84 08 10 00 
  402208:	34 00 00 00 	sw $22,20($4)
  40220c:	14 00 16 04 
  402210:	43 00 00 00 	addiu $8,$0,1
  402214:	01 00 08 00 
  402218:	34 00 00 00 	sw $8,24($4)
  40221c:	18 00 08 04 
  402220:	43 00 00 00 	addiu $4,$0,4
  402224:	04 00 04 00 
  402228:	02 00 00 00 	jal 4243a8 <malloc>
  40222c:	ea 90 10 00 
  402230:	28 00 00 00 	lw $2,-32752($28)
  402234:	10 80 02 1c 
  402238:	a2 00 00 00 	lui $1,36864
  40223c:	00 90 01 00 
  402240:	34 00 00 00 	sw $2,256($1)
  402244:	00 01 02 01 
  402248:	06 00 00 00 	bne $20,$0,402278 <main+0xbd8>
  40224c:	0a 00 00 14 
  402250:	28 00 00 00 	lw $3,32($18)
  402254:	20 00 03 12 
  402258:	28 00 00 00 	lw $2,-32748($28)
  40225c:	14 80 02 1c 
  402260:	46 00 00 00 	mult $3,$2
  402264:	00 00 02 03 
  402268:	4c 00 00 00 	mflo $20
  40226c:	00 14 00 00 
  402270:	01 00 00 00 	j 4022a0 <main+0xc00>
  402274:	a8 08 10 00 
  402278:	28 00 00 00 	lw $2,32($18)
  40227c:	20 00 02 12 
  402280:	28 00 00 00 	lw $3,-32748($28)
  402284:	14 80 03 1c 
  402288:	46 00 00 00 	mult $2,$3
  40228c:	00 00 03 02 
  402290:	4c 00 00 00 	mflo $2
  402294:	00 02 00 00 
  402298:	42 00 00 00 	addu $20,$20,$2
  40229c:	00 14 02 14 
  4022a0:	28 00 00 00 	lw $4,-32428($28)
  4022a4:	54 81 04 1c 
  4022a8:	02 00 00 00 	jal 421670 <fflush>
  4022ac:	9c 85 10 00 
  4022b0:	28 00 00 00 	lw $2,-32756($28)
  4022b4:	0c 80 02 1c 
  4022b8:	06 00 00 00 	bne $2,$0,402348 <main+0xca8>
  4022bc:	22 00 00 02 
  4022c0:	28 00 00 00 	lw $2,-32756($28)
  4022c4:	0c 80 02 1c 
  4022c8:	06 00 00 00 	bne $2,$0,402308 <main+0xc68>
  4022cc:	0e 00 00 02 
	...
  4022d8:	28 00 00 00 	lw $5,-32756($28)
  4022dc:	0c 80 05 1c 
  4022e0:	a2 00 00 00 	lui $4,4096
  4022e4:	00 10 04 00 
  4022e8:	43 00 00 00 	addiu $4,$4,3060
  4022ec:	f4 0b 04 04 
  4022f0:	02 00 00 00 	jal 421600 <printf>
  4022f4:	80 85 10 00 
  4022f8:	28 00 00 00 	lw $2,-32756($28)
  4022fc:	0c 80 02 1c 
  402300:	05 00 00 00 	beq $2,$0,4022d0 <main+0xc30>
  402304:	f2 ff 00 02 
  402308:	a2 00 00 00 	lui $4,4096
  40230c:	00 10 04 00 
  402310:	43 00 00 00 	addiu $4,$4,3076
  402314:	04 0c 04 04 
  402318:	42 00 00 00 	addu $5,$0,$30
  40231c:	00 05 1e 00 
  402320:	02 00 00 00 	jal 421600 <printf>
  402324:	80 85 10 00 
  402328:	28 00 00 00 	lw $4,-32428($28)
  40232c:	54 81 04 1c 
  402330:	02 00 00 00 	jal 421670 <fflush>
  402334:	9c 85 10 00 
  402338:	43 00 00 00 	addiu $19,$0,1
  40233c:	01 00 13 00 
  402340:	01 00 00 00 	j 4024d8 <main+0xe38>
  402344:	36 09 10 00 
  402348:	a2 00 00 00 	lui $4,4096
  40234c:	00 10 04 00 
  402350:	43 00 00 00 	addiu $4,$4,3076
  402354:	04 0c 04 04 
  402358:	42 00 00 00 	addu $5,$0,$30
  40235c:	00 05 1e 00 
  402360:	02 00 00 00 	jal 421600 <printf>
  402364:	80 85 10 00 
  402368:	28 00 00 00 	lw $4,-32428($28)
  40236c:	54 81 04 1c 
  402370:	02 00 00 00 	jal 421670 <fflush>
  402374:	9c 85 10 00 
  402378:	28 00 00 00 	lw $2,-32748($28)
  40237c:	14 80 02 1c 
  402380:	43 00 00 00 	addiu $17,$0,1
  402384:	01 00 11 00 
  402388:	42 00 00 00 	addu $16,$0,$0
  40238c:	00 10 00 00 
  402390:	07 00 00 00 	blez $2,402440 <main+0xda0>
  402394:	2a 00 00 02 
  402398:	43 00 00 00 	addiu $8,$0,1
  40239c:	01 00 08 00 
  4023a0:	06 00 00 00 	bne $19,$8,4023d0 <main+0xd30>
  4023a4:	0a 00 08 13 
  4023a8:	28 00 00 00 	lw $2,32($18)
  4023ac:	20 00 02 12 
  4023b0:	46 00 00 00 	mult $16,$2
  4023b4:	00 00 02 10 
  4023b8:	4c 00 00 00 	mflo $2
  4023bc:	00 02 00 00 
  4023c0:	42 00 00 00 	addu $2,$23,$2
  4023c4:	00 02 02 17 
  4023c8:	01 00 00 00 	j 4023f0 <main+0xd50>
  4023cc:	fc 08 10 00 
  4023d0:	28 00 00 00 	lw $2,32($18)
  4023d4:	20 00 02 12 
  4023d8:	46 00 00 00 	mult $16,$2
  4023dc:	00 00 02 10 
  4023e0:	4c 00 00 00 	mflo $2
  4023e4:	00 02 00 00 
  4023e8:	42 00 00 00 	addu $2,$22,$2
  4023ec:	00 02 02 16 
  4023f0:	34 00 00 00 	sw $2,24($18)
  4023f4:	18 00 02 12 
  4023f8:	34 00 00 00 	sw $2,28($18)
  4023fc:	1c 00 02 12 
  402400:	28 00 00 00 	lw $5,16($21)
  402404:	10 00 05 15 
  402408:	43 00 00 00 	addiu $4,$29,24
  40240c:	18 00 04 1d 
  402410:	42 00 00 00 	addu $6,$0,$17
  402414:	00 06 11 00 
  402418:	02 00 00 00 	jal 40d008 <jpeg_write_scanlines>
  40241c:	02 34 10 00 
  402420:	28 00 00 00 	lw $2,-32748($28)
  402424:	14 80 02 1c 
  402428:	43 00 00 00 	addiu $16,$16,1
  40242c:	01 00 10 10 
  402430:	5b 00 00 00 	slt $2,$16,$2
  402434:	00 02 02 10 
  402438:	06 00 00 00 	bne $2,$0,402398 <main+0xcf8>
  40243c:	d6 ff 00 02 
  402440:	a2 00 00 00 	lui $4,4096
  402444:	00 10 04 00 
  402448:	43 00 00 00 	addiu $4,$4,3036
  40244c:	dc 0b 04 04 
  402450:	42 00 00 00 	addu $5,$0,$30
  402454:	00 05 1e 00 
  402458:	02 00 00 00 	jal 421600 <printf>
  40245c:	80 85 10 00 
  402460:	28 00 00 00 	lw $4,-32428($28)
  402464:	54 81 04 1c 
  402468:	02 00 00 00 	jal 421670 <fflush>
  40246c:	9c 85 10 00 
  402470:	28 00 00 00 	lw $2,-32756($28)
  402474:	0c 80 02 1c 
  402478:	5b 00 00 00 	slt $2,$30,$2
  40247c:	00 02 02 1e 
  402480:	05 00 00 00 	beq $2,$0,402470 <main+0xdd0>
  402484:	fa ff 00 02 
  402488:	06 00 00 00 	bne $19,$0,4024a0 <main+0xe00>
  40248c:	04 00 00 13 
  402490:	43 00 00 00 	addiu $19,$0,1
  402494:	01 00 13 00 
  402498:	01 00 00 00 	j 4024a8 <main+0xe08>
  40249c:	2a 09 10 00 
  4024a0:	42 00 00 00 	addu $19,$0,$0
  4024a4:	00 13 00 00 
  4024a8:	a2 00 00 00 	lui $4,4096
  4024ac:	00 10 04 00 
  4024b0:	43 00 00 00 	addiu $4,$4,3036
  4024b4:	dc 0b 04 04 
  4024b8:	42 00 00 00 	addu $5,$0,$30
  4024bc:	00 05 1e 00 
  4024c0:	02 00 00 00 	jal 421600 <printf>
  4024c4:	80 85 10 00 
  4024c8:	28 00 00 00 	lw $4,-32428($28)
  4024cc:	54 81 04 1c 
  4024d0:	02 00 00 00 	jal 421670 <fflush>
  4024d4:	9c 85 10 00 
  4024d8:	28 00 00 00 	lw $3,52($29)
  4024dc:	34 00 03 1d 
  4024e0:	28 00 00 00 	lw $2,240($29)
  4024e4:	f0 00 02 1d 
  4024e8:	57 00 00 00 	srl $3,$3,0x1
  4024ec:	01 03 03 00 
  4024f0:	5d 00 00 00 	sltu $2,$2,$3
  4024f4:	00 02 03 02 
  4024f8:	06 00 00 00 	bne $2,$0,402120 <main+0xa80>
  4024fc:	08 ff 00 02 
  402500:	a2 00 00 00 	lui $4,4096
  402504:	00 10 04 00 
  402508:	43 00 00 00 	addiu $4,$4,3100
  40250c:	1c 0c 04 04 
  402510:	02 00 00 00 	jal 421600 <printf>
  402514:	80 85 10 00 
  402518:	28 00 00 00 	lw $2,-32764($28)
  40251c:	04 80 02 1c 
  402520:	20 00 00 00 	lb $2,1($2)
  402524:	01 00 02 02 
  402528:	06 00 00 00 	bne $2,$0,402ed8 <main+0x1838>
  40252c:	6a 02 00 02 
  402530:	28 00 00 00 	lw $4,-32428($28)
  402534:	54 81 04 1c 
  402538:	02 00 00 00 	jal 421670 <fflush>
  40253c:	9c 85 10 00 
  402540:	28 00 00 00 	lw $2,-32764($28)
  402544:	04 80 02 1c 
  402548:	20 00 00 00 	lb $2,1($2)
  40254c:	01 00 02 02 
  402550:	05 00 00 00 	beq $2,$0,402530 <main+0xe90>
  402554:	f6 ff 00 02 
  402558:	01 00 00 00 	j 402ed8 <main+0x1838>
  40255c:	b6 0b 10 00 
  402560:	28 00 00 00 	lw $4,-32748($28)
  402564:	14 80 04 1c 
  402568:	28 00 00 00 	lw $2,32($21)
  40256c:	20 00 02 15 
  402570:	55 00 00 00 	sll $4,$4,0x2
  402574:	02 04 04 00 
  402578:	46 00 00 00 	mult $4,$2
  40257c:	00 00 02 04 
  402580:	4c 00 00 00 	mflo $4
  402584:	00 04 00 00 
  402588:	43 00 00 00 	addiu $5,$0,1
  40258c:	01 00 05 00 
  402590:	02 00 00 00 	jal 424d30 <calloc>
  402594:	4c 93 10 00 
  402598:	42 00 00 00 	addu $23,$0,$2
  40259c:	00 17 02 00 
  4025a0:	28 00 00 00 	lw $4,-32748($28)
  4025a4:	14 80 04 1c 
  4025a8:	28 00 00 00 	lw $2,32($21)
  4025ac:	20 00 02 15 
  4025b0:	55 00 00 00 	sll $4,$4,0x2
  4025b4:	02 04 04 00 
  4025b8:	46 00 00 00 	mult $4,$2
  4025bc:	00 00 02 04 
  4025c0:	4c 00 00 00 	mflo $4
  4025c4:	00 04 00 00 
  4025c8:	43 00 00 00 	addiu $5,$0,1
  4025cc:	01 00 05 00 
  4025d0:	02 00 00 00 	jal 424d30 <calloc>
  4025d4:	4c 93 10 00 
  4025d8:	42 00 00 00 	addu $22,$0,$2
  4025dc:	00 16 02 00 
  4025e0:	28 00 00 00 	lw $2,32($21)
  4025e4:	20 00 02 15 
  4025e8:	28 00 00 00 	lw $3,-32748($28)
  4025ec:	14 80 03 1c 
  4025f0:	46 00 00 00 	mult $2,$3
  4025f4:	00 00 03 02 
  4025f8:	4c 00 00 00 	mflo $2
  4025fc:	00 02 00 00 
  402600:	42 00 00 00 	addu $18,$0,$21
  402604:	00 12 15 00 
  402608:	42 00 00 00 	addu $4,$0,$0
  40260c:	00 04 00 00 
  402610:	42 00 00 00 	addu $19,$0,$0
  402614:	00 13 00 00 
  402618:	05 00 00 00 	beq $2,$0,402950 <main+0x12b0>
  40261c:	cc 00 00 02 
  402620:	42 00 00 00 	addu $2,$23,$4
  402624:	00 02 04 17 
  402628:	30 00 00 00 	sb $0,0($2)
  40262c:	00 00 00 02 
  402630:	42 00 00 00 	addu $2,$22,$4
  402634:	00 02 04 16 
  402638:	30 00 00 00 	sb $0,0($2)
  40263c:	00 00 00 02 
  402640:	28 00 00 00 	lw $2,32($18)
  402644:	20 00 02 12 
  402648:	28 00 00 00 	lw $3,-32748($28)
  40264c:	14 80 03 1c 
  402650:	46 00 00 00 	mult $2,$3
  402654:	00 00 03 02 
  402658:	4c 00 00 00 	mflo $2
  40265c:	00 02 00 00 
  402660:	43 00 00 00 	addiu $4,$4,1
  402664:	01 00 04 04 
  402668:	5d 00 00 00 	sltu $2,$4,$2
  40266c:	00 02 02 04 
  402670:	06 00 00 00 	bne $2,$0,402620 <main+0xf80>
  402674:	ea ff 00 02 
  402678:	01 00 00 00 	j 402950 <main+0x12b0>
  40267c:	54 0a 10 00 
  402680:	28 00 00 00 	lw $2,536($29)
  402684:	18 02 02 1d 
  402688:	0a 00 00 00 	bgez $2,402698 <main+0xff8>
  40268c:	02 00 00 02 
  402690:	43 00 00 00 	addiu $2,$2,3
  402694:	03 00 02 02 
  402698:	59 00 00 00 	sra $2,$2,0x2
  40269c:	02 02 02 00 
  4026a0:	5b 00 00 00 	slt $2,$20,$2
  4026a4:	00 02 02 14 
  4026a8:	05 00 00 00 	beq $2,$0,402818 <main+0x1178>
  4026ac:	5a 00 00 02 
  4026b0:	28 00 00 00 	lw $30,-32756($28)
  4026b4:	0c 80 1e 1c 
  4026b8:	43 00 00 00 	addiu $4,$0,4
  4026bc:	04 00 04 00 
  4026c0:	02 00 00 00 	jal 4243a8 <malloc>
  4026c4:	ea 90 10 00 
  4026c8:	28 00 00 00 	lw $2,-32752($28)
  4026cc:	10 80 02 1c 
  4026d0:	28 00 00 00 	lw $8,544($29)
  4026d4:	20 02 08 1d 
  4026d8:	43 00 00 00 	addiu $2,$2,-1
  4026dc:	ff ff 02 02 
  4026e0:	55 00 00 00 	sll $3,$2,0x3
  4026e4:	03 03 02 00 
  4026e8:	45 00 00 00 	subu $3,$3,$2
  4026ec:	00 03 02 03 
  4026f0:	55 00 00 00 	sll $3,$3,0x2
  4026f4:	02 03 03 00 
  4026f8:	a2 00 00 00 	lui $2,36864
  4026fc:	00 90 02 00 
  402700:	42 00 00 00 	addu $4,$3,$2
  402704:	00 04 02 03 
  402708:	42 00 00 00 	addu $2,$8,$20
  40270c:	00 02 14 08 
  402710:	43 00 00 00 	addiu $8,$0,1
  402714:	01 00 08 00 
  402718:	34 00 00 00 	sw $2,0($4)
  40271c:	00 00 02 04 
  402720:	34 00 00 00 	sw $8,4($4)
  402724:	04 00 08 04 
  402728:	28 00 00 00 	lw $2,32($18)
  40272c:	20 00 02 12 
  402730:	28 00 00 00 	lw $3,-32748($28)
  402734:	14 80 03 1c 
  402738:	46 00 00 00 	mult $2,$3
  40273c:	00 00 03 02 
  402740:	4c 00 00 00 	mflo $2
  402744:	00 02 00 00 
  402748:	34 00 00 00 	sw $2,8($4)
  40274c:	08 00 02 04 
  402750:	28 00 00 00 	lw $2,-32752($28)
  402754:	10 80 02 1c 
  402758:	34 00 00 00 	sw $0,12($4)
  40275c:	0c 00 00 04 
  402760:	34 00 00 00 	sw $2,16($4)
  402764:	10 00 02 04 
  402768:	06 00 00 00 	bne $19,$0,402780 <main+0x10e0>
  40276c:	04 00 00 13 
  402770:	34 00 00 00 	sw $23,20($4)
  402774:	14 00 17 04 
  402778:	01 00 00 00 	j 402788 <main+0x10e8>
  40277c:	e2 09 10 00 
  402780:	34 00 00 00 	sw $22,20($4)
  402784:	14 00 16 04 
  402788:	43 00 00 00 	addiu $8,$0,1
  40278c:	01 00 08 00 
  402790:	34 00 00 00 	sw $8,24($4)
  402794:	18 00 08 04 
  402798:	43 00 00 00 	addiu $4,$0,4
  40279c:	04 00 04 00 
  4027a0:	02 00 00 00 	jal 4243a8 <malloc>
  4027a4:	ea 90 10 00 
  4027a8:	28 00 00 00 	lw $2,-32752($28)
  4027ac:	10 80 02 1c 
  4027b0:	a2 00 00 00 	lui $1,36864
  4027b4:	00 90 01 00 
  4027b8:	34 00 00 00 	sw $2,256($1)
  4027bc:	00 01 02 01 
  4027c0:	06 00 00 00 	bne $20,$0,4027f0 <main+0x1150>
  4027c4:	0a 00 00 14 
  4027c8:	28 00 00 00 	lw $3,32($18)
  4027cc:	20 00 03 12 
  4027d0:	28 00 00 00 	lw $2,-32748($28)
  4027d4:	14 80 02 1c 
  4027d8:	46 00 00 00 	mult $3,$2
  4027dc:	00 00 02 03 
  4027e0:	4c 00 00 00 	mflo $20
  4027e4:	00 14 00 00 
  4027e8:	01 00 00 00 	j 402818 <main+0x1178>
  4027ec:	06 0a 10 00 
  4027f0:	28 00 00 00 	lw $2,32($18)
  4027f4:	20 00 02 12 
  4027f8:	28 00 00 00 	lw $3,-32748($28)
  4027fc:	14 80 03 1c 
  402800:	46 00 00 00 	mult $2,$3
  402804:	00 00 03 02 
  402808:	4c 00 00 00 	mflo $2
  40280c:	00 02 00 00 
  402810:	42 00 00 00 	addu $20,$20,$2
  402814:	00 14 02 14 
  402818:	28 00 00 00 	lw $4,-32428($28)
  40281c:	54 81 04 1c 
  402820:	02 00 00 00 	jal 421670 <fflush>
  402824:	9c 85 10 00 
  402828:	28 00 00 00 	lw $2,-32756($28)
  40282c:	0c 80 02 1c 
  402830:	06 00 00 00 	bne $2,$0,402850 <main+0x11b0>
  402834:	06 00 00 02 
  402838:	28 00 00 00 	lw $2,-32756($28)
  40283c:	0c 80 02 1c 
  402840:	05 00 00 00 	beq $2,$0,402838 <main+0x1198>
  402844:	fc ff 00 02 
  402848:	01 00 00 00 	j 402938 <main+0x1298>
  40284c:	4e 0a 10 00 
  402850:	28 00 00 00 	lw $2,-32748($28)
  402854:	14 80 02 1c 
  402858:	43 00 00 00 	addiu $17,$0,1
  40285c:	01 00 11 00 
  402860:	42 00 00 00 	addu $16,$0,$0
  402864:	00 10 00 00 
  402868:	07 00 00 00 	blez $2,402918 <main+0x1278>
  40286c:	2a 00 00 02 
  402870:	43 00 00 00 	addiu $8,$0,1
  402874:	01 00 08 00 
  402878:	06 00 00 00 	bne $19,$8,4028a8 <main+0x1208>
  40287c:	0a 00 08 13 
  402880:	28 00 00 00 	lw $2,32($18)
  402884:	20 00 02 12 
  402888:	46 00 00 00 	mult $16,$2
  40288c:	00 00 02 10 
  402890:	4c 00 00 00 	mflo $2
  402894:	00 02 00 00 
  402898:	42 00 00 00 	addu $2,$23,$2
  40289c:	00 02 02 17 
  4028a0:	01 00 00 00 	j 4028c8 <main+0x1228>
  4028a4:	32 0a 10 00 
  4028a8:	28 00 00 00 	lw $2,32($18)
  4028ac:	20 00 02 12 
  4028b0:	46 00 00 00 	mult $16,$2
  4028b4:	00 00 02 10 
  4028b8:	4c 00 00 00 	mflo $2
  4028bc:	00 02 00 00 
  4028c0:	42 00 00 00 	addu $2,$22,$2
  4028c4:	00 02 02 16 
  4028c8:	34 00 00 00 	sw $2,24($18)
  4028cc:	18 00 02 12 
  4028d0:	34 00 00 00 	sw $2,28($18)
  4028d4:	1c 00 02 12 
  4028d8:	28 00 00 00 	lw $5,16($21)
  4028dc:	10 00 05 15 
  4028e0:	43 00 00 00 	addiu $4,$29,24
  4028e4:	18 00 04 1d 
  4028e8:	42 00 00 00 	addu $6,$0,$17
  4028ec:	00 06 11 00 
  4028f0:	02 00 00 00 	jal 40d008 <jpeg_write_scanlines>
  4028f4:	02 34 10 00 
  4028f8:	28 00 00 00 	lw $2,-32748($28)
  4028fc:	14 80 02 1c 
  402900:	43 00 00 00 	addiu $16,$16,1
  402904:	01 00 10 10 
  402908:	5b 00 00 00 	slt $2,$16,$2
  40290c:	00 02 02 10 
  402910:	06 00 00 00 	bne $2,$0,402870 <main+0x11d0>
  402914:	d6 ff 00 02 
  402918:	28 00 00 00 	lw $2,-32756($28)
  40291c:	0c 80 02 1c 
  402920:	5b 00 00 00 	slt $2,$30,$2
  402924:	00 02 02 1e 
  402928:	05 00 00 00 	beq $2,$0,402918 <main+0x1278>
  40292c:	fa ff 00 02 
  402930:	06 00 00 00 	bne $19,$0,402948 <main+0x12a8>
  402934:	04 00 00 13 
  402938:	43 00 00 00 	addiu $19,$0,1
  40293c:	01 00 13 00 
  402940:	01 00 00 00 	j 402950 <main+0x12b0>
  402944:	54 0a 10 00 
  402948:	42 00 00 00 	addu $19,$0,$0
  40294c:	00 13 00 00 
  402950:	28 00 00 00 	lw $3,52($29)
  402954:	34 00 03 1d 
  402958:	28 00 00 00 	lw $2,240($29)
  40295c:	f0 00 02 1d 
  402960:	57 00 00 00 	srl $3,$3,0x2
  402964:	02 03 03 00 
  402968:	5d 00 00 00 	sltu $2,$2,$3
  40296c:	00 02 03 02 
  402970:	06 00 00 00 	bne $2,$0,402680 <main+0xfe0>
  402974:	42 ff 00 02 
  402978:	a2 00 00 00 	lui $4,4096
  40297c:	00 10 04 00 
  402980:	43 00 00 00 	addiu $4,$4,3136
  402984:	40 0c 04 04 
  402988:	02 00 00 00 	jal 421600 <printf>
  40298c:	80 85 10 00 
  402990:	28 00 00 00 	lw $3,-32764($28)
  402994:	04 80 03 1c 
  402998:	20 00 00 00 	lb $2,1($3)
  40299c:	01 00 02 03 
  4029a0:	05 00 00 00 	beq $2,$0,4029c8 <main+0x1328>
  4029a4:	08 00 00 02 
  4029a8:	20 00 00 00 	lb $2,2($3)
  4029ac:	02 00 02 03 
  4029b0:	05 00 00 00 	beq $2,$0,4029c8 <main+0x1328>
  4029b4:	04 00 00 02 
  4029b8:	20 00 00 00 	lb $2,3($3)
  4029bc:	03 00 02 03 
  4029c0:	06 00 00 00 	bne $2,$0,402ed8 <main+0x1838>
  4029c4:	44 01 00 02 
  4029c8:	28 00 00 00 	lw $4,-32428($28)
  4029cc:	54 81 04 1c 
  4029d0:	02 00 00 00 	jal 421670 <fflush>
  4029d4:	9c 85 10 00 
  4029d8:	28 00 00 00 	lw $3,-32764($28)
  4029dc:	04 80 03 1c 
  4029e0:	20 00 00 00 	lb $2,1($3)
  4029e4:	01 00 02 03 
  4029e8:	05 00 00 00 	beq $2,$0,4029c8 <main+0x1328>
  4029ec:	f6 ff 00 02 
  4029f0:	20 00 00 00 	lb $2,2($3)
  4029f4:	02 00 02 03 
  4029f8:	05 00 00 00 	beq $2,$0,4029c8 <main+0x1328>
  4029fc:	f2 ff 00 02 
  402a00:	20 00 00 00 	lb $2,3($3)
  402a04:	03 00 02 03 
  402a08:	05 00 00 00 	beq $2,$0,4029c8 <main+0x1328>
  402a0c:	ee ff 00 02 
  402a10:	01 00 00 00 	j 402ed8 <main+0x1838>
  402a14:	b6 0b 10 00 
  402a18:	28 00 00 00 	lw $4,-32748($28)
  402a1c:	14 80 04 1c 
  402a20:	28 00 00 00 	lw $2,32($21)
  402a24:	20 00 02 15 
  402a28:	55 00 00 00 	sll $4,$4,0x2
  402a2c:	02 04 04 00 
  402a30:	46 00 00 00 	mult $4,$2
  402a34:	00 00 02 04 
  402a38:	4c 00 00 00 	mflo $4
  402a3c:	00 04 00 00 
  402a40:	43 00 00 00 	addiu $5,$0,1
  402a44:	01 00 05 00 
  402a48:	02 00 00 00 	jal 424d30 <calloc>
  402a4c:	4c 93 10 00 
  402a50:	42 00 00 00 	addu $23,$0,$2
  402a54:	00 17 02 00 
  402a58:	28 00 00 00 	lw $4,-32748($28)
  402a5c:	14 80 04 1c 
  402a60:	28 00 00 00 	lw $2,32($21)
  402a64:	20 00 02 15 
  402a68:	55 00 00 00 	sll $4,$4,0x2
  402a6c:	02 04 04 00 
  402a70:	46 00 00 00 	mult $4,$2
  402a74:	00 00 02 04 
  402a78:	4c 00 00 00 	mflo $4
  402a7c:	00 04 00 00 
  402a80:	43 00 00 00 	addiu $5,$0,1
  402a84:	01 00 05 00 
  402a88:	02 00 00 00 	jal 424d30 <calloc>
  402a8c:	4c 93 10 00 
  402a90:	42 00 00 00 	addu $22,$0,$2
  402a94:	00 16 02 00 
  402a98:	28 00 00 00 	lw $2,32($21)
  402a9c:	20 00 02 15 
  402aa0:	28 00 00 00 	lw $3,-32748($28)
  402aa4:	14 80 03 1c 
  402aa8:	46 00 00 00 	mult $2,$3
  402aac:	00 00 03 02 
  402ab0:	4c 00 00 00 	mflo $2
  402ab4:	00 02 00 00 
  402ab8:	42 00 00 00 	addu $18,$0,$21
  402abc:	00 12 15 00 
  402ac0:	42 00 00 00 	addu $4,$0,$0
  402ac4:	00 04 00 00 
  402ac8:	42 00 00 00 	addu $19,$0,$0
  402acc:	00 13 00 00 
  402ad0:	05 00 00 00 	beq $2,$0,402e08 <main+0x1768>
  402ad4:	cc 00 00 02 
  402ad8:	42 00 00 00 	addu $2,$23,$4
  402adc:	00 02 04 17 
  402ae0:	30 00 00 00 	sb $0,0($2)
  402ae4:	00 00 00 02 
  402ae8:	42 00 00 00 	addu $2,$22,$4
  402aec:	00 02 04 16 
  402af0:	30 00 00 00 	sb $0,0($2)
  402af4:	00 00 00 02 
  402af8:	28 00 00 00 	lw $2,32($18)
  402afc:	20 00 02 12 
  402b00:	28 00 00 00 	lw $3,-32748($28)
  402b04:	14 80 03 1c 
  402b08:	46 00 00 00 	mult $2,$3
  402b0c:	00 00 03 02 
  402b10:	4c 00 00 00 	mflo $2
  402b14:	00 02 00 00 
  402b18:	43 00 00 00 	addiu $4,$4,1
  402b1c:	01 00 04 04 
  402b20:	5d 00 00 00 	sltu $2,$4,$2
  402b24:	00 02 02 04 
  402b28:	06 00 00 00 	bne $2,$0,402ad8 <main+0x1438>
  402b2c:	ea ff 00 02 
  402b30:	01 00 00 00 	j 402e08 <main+0x1768>
  402b34:	82 0b 10 00 
  402b38:	28 00 00 00 	lw $2,536($29)
  402b3c:	18 02 02 1d 
  402b40:	0a 00 00 00 	bgez $2,402b50 <main+0x14b0>
  402b44:	02 00 00 02 
  402b48:	43 00 00 00 	addiu $2,$2,7
  402b4c:	07 00 02 02 
  402b50:	59 00 00 00 	sra $2,$2,0x3
  402b54:	03 02 02 00 
  402b58:	5b 00 00 00 	slt $2,$20,$2
  402b5c:	00 02 02 14 
  402b60:	05 00 00 00 	beq $2,$0,402cd0 <main+0x1630>
  402b64:	5a 00 00 02 
  402b68:	28 00 00 00 	lw $30,-32756($28)
  402b6c:	0c 80 1e 1c 
  402b70:	43 00 00 00 	addiu $4,$0,4
  402b74:	04 00 04 00 
  402b78:	02 00 00 00 	jal 4243a8 <malloc>
  402b7c:	ea 90 10 00 
  402b80:	28 00 00 00 	lw $2,-32752($28)
  402b84:	10 80 02 1c 
  402b88:	28 00 00 00 	lw $8,544($29)
  402b8c:	20 02 08 1d 
  402b90:	43 00 00 00 	addiu $2,$2,-1
  402b94:	ff ff 02 02 
  402b98:	55 00 00 00 	sll $3,$2,0x3
  402b9c:	03 03 02 00 
  402ba0:	45 00 00 00 	subu $3,$3,$2
  402ba4:	00 03 02 03 
  402ba8:	55 00 00 00 	sll $3,$3,0x2
  402bac:	02 03 03 00 
  402bb0:	a2 00 00 00 	lui $2,36864
  402bb4:	00 90 02 00 
  402bb8:	42 00 00 00 	addu $4,$3,$2
  402bbc:	00 04 02 03 
  402bc0:	42 00 00 00 	addu $2,$8,$20
  402bc4:	00 02 14 08 
  402bc8:	43 00 00 00 	addiu $8,$0,1
  402bcc:	01 00 08 00 
  402bd0:	34 00 00 00 	sw $2,0($4)
  402bd4:	00 00 02 04 
  402bd8:	34 00 00 00 	sw $8,4($4)
  402bdc:	04 00 08 04 
  402be0:	28 00 00 00 	lw $2,32($18)
  402be4:	20 00 02 12 
  402be8:	28 00 00 00 	lw $3,-32748($28)
  402bec:	14 80 03 1c 
  402bf0:	46 00 00 00 	mult $2,$3
  402bf4:	00 00 03 02 
  402bf8:	4c 00 00 00 	mflo $2
  402bfc:	00 02 00 00 
  402c00:	34 00 00 00 	sw $2,8($4)
  402c04:	08 00 02 04 
  402c08:	28 00 00 00 	lw $2,-32752($28)
  402c0c:	10 80 02 1c 
  402c10:	34 00 00 00 	sw $0,12($4)
  402c14:	0c 00 00 04 
  402c18:	34 00 00 00 	sw $2,16($4)
  402c1c:	10 00 02 04 
  402c20:	06 00 00 00 	bne $19,$0,402c38 <main+0x1598>
  402c24:	04 00 00 13 
  402c28:	34 00 00 00 	sw $23,20($4)
  402c2c:	14 00 17 04 
  402c30:	01 00 00 00 	j 402c40 <main+0x15a0>
  402c34:	10 0b 10 00 
  402c38:	34 00 00 00 	sw $22,20($4)
  402c3c:	14 00 16 04 
  402c40:	43 00 00 00 	addiu $8,$0,1
  402c44:	01 00 08 00 
  402c48:	34 00 00 00 	sw $8,24($4)
  402c4c:	18 00 08 04 
  402c50:	43 00 00 00 	addiu $4,$0,4
  402c54:	04 00 04 00 
  402c58:	02 00 00 00 	jal 4243a8 <malloc>
  402c5c:	ea 90 10 00 
  402c60:	28 00 00 00 	lw $2,-32752($28)
  402c64:	10 80 02 1c 
  402c68:	a2 00 00 00 	lui $1,36864
  402c6c:	00 90 01 00 
  402c70:	34 00 00 00 	sw $2,256($1)
  402c74:	00 01 02 01 
  402c78:	06 00 00 00 	bne $20,$0,402ca8 <main+0x1608>
  402c7c:	0a 00 00 14 
  402c80:	28 00 00 00 	lw $3,32($18)
  402c84:	20 00 03 12 
  402c88:	28 00 00 00 	lw $2,-32748($28)
  402c8c:	14 80 02 1c 
  402c90:	46 00 00 00 	mult $3,$2
  402c94:	00 00 02 03 
  402c98:	4c 00 00 00 	mflo $20
  402c9c:	00 14 00 00 
  402ca0:	01 00 00 00 	j 402cd0 <main+0x1630>
  402ca4:	34 0b 10 00 
  402ca8:	28 00 00 00 	lw $2,32($18)
  402cac:	20 00 02 12 
  402cb0:	28 00 00 00 	lw $3,-32748($28)
  402cb4:	14 80 03 1c 
  402cb8:	46 00 00 00 	mult $2,$3
  402cbc:	00 00 03 02 
  402cc0:	4c 00 00 00 	mflo $2
  402cc4:	00 02 00 00 
  402cc8:	42 00 00 00 	addu $20,$20,$2
  402ccc:	00 14 02 14 
  402cd0:	28 00 00 00 	lw $4,-32428($28)
  402cd4:	54 81 04 1c 
  402cd8:	02 00 00 00 	jal 421670 <fflush>
  402cdc:	9c 85 10 00 
  402ce0:	28 00 00 00 	lw $2,-32756($28)
  402ce4:	0c 80 02 1c 
  402ce8:	06 00 00 00 	bne $2,$0,402d08 <main+0x1668>
  402cec:	06 00 00 02 
  402cf0:	28 00 00 00 	lw $2,-32756($28)
  402cf4:	0c 80 02 1c 
  402cf8:	05 00 00 00 	beq $2,$0,402cf0 <main+0x1650>
  402cfc:	fc ff 00 02 
  402d00:	01 00 00 00 	j 402df0 <main+0x1750>
  402d04:	7c 0b 10 00 
  402d08:	28 00 00 00 	lw $2,-32748($28)
  402d0c:	14 80 02 1c 
  402d10:	43 00 00 00 	addiu $17,$0,1
  402d14:	01 00 11 00 
  402d18:	42 00 00 00 	addu $16,$0,$0
  402d1c:	00 10 00 00 
  402d20:	07 00 00 00 	blez $2,402dd0 <main+0x1730>
  402d24:	2a 00 00 02 
  402d28:	43 00 00 00 	addiu $8,$0,1
  402d2c:	01 00 08 00 
  402d30:	06 00 00 00 	bne $19,$8,402d60 <main+0x16c0>
  402d34:	0a 00 08 13 
  402d38:	28 00 00 00 	lw $2,32($18)
  402d3c:	20 00 02 12 
  402d40:	46 00 00 00 	mult $16,$2
  402d44:	00 00 02 10 
  402d48:	4c 00 00 00 	mflo $2
  402d4c:	00 02 00 00 
  402d50:	42 00 00 00 	addu $2,$23,$2
  402d54:	00 02 02 17 
  402d58:	01 00 00 00 	j 402d80 <main+0x16e0>
  402d5c:	60 0b 10 00 
  402d60:	28 00 00 00 	lw $2,32($18)
  402d64:	20 00 02 12 
  402d68:	46 00 00 00 	mult $16,$2
  402d6c:	00 00 02 10 
  402d70:	4c 00 00 00 	mflo $2
  402d74:	00 02 00 00 
  402d78:	42 00 00 00 	addu $2,$22,$2
  402d7c:	00 02 02 16 
  402d80:	34 00 00 00 	sw $2,24($18)
  402d84:	18 00 02 12 
  402d88:	34 00 00 00 	sw $2,28($18)
  402d8c:	1c 00 02 12 
  402d90:	28 00 00 00 	lw $5,16($21)
  402d94:	10 00 05 15 
  402d98:	43 00 00 00 	addiu $4,$29,24
  402d9c:	18 00 04 1d 
  402da0:	42 00 00 00 	addu $6,$0,$17
  402da4:	00 06 11 00 
  402da8:	02 00 00 00 	jal 40d008 <jpeg_write_scanlines>
  402dac:	02 34 10 00 
  402db0:	28 00 00 00 	lw $2,-32748($28)
  402db4:	14 80 02 1c 
  402db8:	43 00 00 00 	addiu $16,$16,1
  402dbc:	01 00 10 10 
  402dc0:	5b 00 00 00 	slt $2,$16,$2
  402dc4:	00 02 02 10 
  402dc8:	06 00 00 00 	bne $2,$0,402d28 <main+0x1688>
  402dcc:	d6 ff 00 02 
  402dd0:	28 00 00 00 	lw $2,-32756($28)
  402dd4:	0c 80 02 1c 
  402dd8:	5b 00 00 00 	slt $2,$30,$2
  402ddc:	00 02 02 1e 
  402de0:	05 00 00 00 	beq $2,$0,402dd0 <main+0x1730>
  402de4:	fa ff 00 02 
  402de8:	06 00 00 00 	bne $19,$0,402e00 <main+0x1760>
  402dec:	04 00 00 13 
  402df0:	43 00 00 00 	addiu $19,$0,1
  402df4:	01 00 13 00 
  402df8:	01 00 00 00 	j 402e08 <main+0x1768>
  402dfc:	82 0b 10 00 
  402e00:	42 00 00 00 	addu $19,$0,$0
  402e04:	00 13 00 00 
  402e08:	28 00 00 00 	lw $3,52($29)
  402e0c:	34 00 03 1d 
  402e10:	28 00 00 00 	lw $2,240($29)
  402e14:	f0 00 02 1d 
  402e18:	57 00 00 00 	srl $3,$3,0x3
  402e1c:	03 03 03 00 
  402e20:	5d 00 00 00 	sltu $2,$2,$3
  402e24:	00 02 03 02 
  402e28:	06 00 00 00 	bne $2,$0,402b38 <main+0x1498>
  402e2c:	42 ff 00 02 
  402e30:	a2 00 00 00 	lui $4,4096
  402e34:	00 10 04 00 
  402e38:	43 00 00 00 	addiu $4,$4,3136
  402e3c:	40 0c 04 04 
  402e40:	02 00 00 00 	jal 421600 <printf>
  402e44:	80 85 10 00 
  402e48:	01 00 00 00 	j 402e60 <main+0x17c0>
  402e4c:	98 0b 10 00 
  402e50:	28 00 00 00 	lw $4,-32428($28)
  402e54:	54 81 04 1c 
  402e58:	02 00 00 00 	jal 421670 <fflush>
  402e5c:	9c 85 10 00 
  402e60:	28 00 00 00 	lw $3,-32764($28)
  402e64:	04 80 03 1c 
  402e68:	20 00 00 00 	lb $2,1($3)
  402e6c:	01 00 02 03 
  402e70:	05 00 00 00 	beq $2,$0,402e50 <main+0x17b0>
  402e74:	f6 ff 00 02 
  402e78:	20 00 00 00 	lb $2,2($3)
  402e7c:	02 00 02 03 
  402e80:	05 00 00 00 	beq $2,$0,402e50 <main+0x17b0>
  402e84:	f2 ff 00 02 
  402e88:	20 00 00 00 	lb $2,3($3)
  402e8c:	03 00 02 03 
  402e90:	05 00 00 00 	beq $2,$0,402e50 <main+0x17b0>
  402e94:	ee ff 00 02 
  402e98:	20 00 00 00 	lb $2,4($3)
  402e9c:	04 00 02 03 
  402ea0:	05 00 00 00 	beq $2,$0,402e50 <main+0x17b0>
  402ea4:	ea ff 00 02 
  402ea8:	20 00 00 00 	lb $2,5($3)
  402eac:	05 00 02 03 
  402eb0:	05 00 00 00 	beq $2,$0,402e50 <main+0x17b0>
  402eb4:	e6 ff 00 02 
  402eb8:	20 00 00 00 	lb $2,6($3)
  402ebc:	06 00 02 03 
  402ec0:	05 00 00 00 	beq $2,$0,402e50 <main+0x17b0>
  402ec4:	e2 ff 00 02 
  402ec8:	20 00 00 00 	lb $2,7($3)
  402ecc:	07 00 02 03 
  402ed0:	05 00 00 00 	beq $2,$0,402e50 <main+0x17b0>
  402ed4:	de ff 00 02 
  402ed8:	28 00 00 00 	lw $2,52($29)
  402edc:	34 00 02 1d 
  402ee0:	28 00 00 00 	lw $4,-32428($28)
  402ee4:	54 81 04 1c 
  402ee8:	34 00 00 00 	sw $2,240($29)
  402eec:	f0 00 02 1d 
  402ef0:	02 00 00 00 	jal 421670 <fflush>
  402ef4:	9c 85 10 00 
  402ef8:	28 00 00 00 	lw $2,-32760($28)
  402efc:	08 80 02 1c 
  402f00:	28 00 00 00 	lw $5,0($2)
  402f04:	00 00 05 02 
  402f08:	43 00 00 00 	addiu $4,$29,24
  402f0c:	18 00 04 1d 
  402f10:	02 00 00 00 	jal 40dfb0 <compress>
  402f14:	ec 37 10 00 
  402f18:	28 00 00 00 	lw $2,8($21)
  402f1c:	08 00 02 15 
  402f20:	43 00 00 00 	addiu $4,$29,24
  402f24:	18 00 04 1d 
  402f28:	42 00 00 00 	addu $5,$0,$21
  402f2c:	00 05 15 00 
  402f30:	04 00 00 00 	jalr $31,$2
  402f34:	00 1f 00 02 
  402f38:	43 00 00 00 	addiu $4,$29,24
  402f3c:	18 00 04 1d 
  402f40:	02 00 00 00 	jal 40c538 <jpeg_finish_compress>
  402f44:	4e 31 10 00 
  402f48:	43 00 00 00 	addiu $4,$29,24
  402f4c:	18 00 04 1d 
  402f50:	02 00 00 00 	jal 40c418 <jpeg_destroy_compress>
  402f54:	06 31 10 00 
  402f58:	28 00 00 00 	lw $2,-32432($28)
  402f5c:	50 81 02 1c 
  402f60:	28 00 00 00 	lw $8,520($29)
  402f64:	08 02 08 1d 
  402f68:	05 00 00 00 	beq $8,$2,402f80 <main+0x18e0>
  402f6c:	04 00 02 08 
  402f70:	28 00 00 00 	lw $4,520($29)
  402f74:	08 02 04 1d 
  402f78:	02 00 00 00 	jal 424dd0 <fclose>
  402f7c:	74 93 10 00 
  402f80:	28 00 00 00 	lw $2,-32428($28)
  402f84:	54 81 02 1c 
  402f88:	28 00 00 00 	lw $8,528($29)
  402f8c:	10 02 08 1d 
  402f90:	05 00 00 00 	beq $8,$2,402fa8 <main+0x1908>
  402f94:	04 00 02 08 
  402f98:	28 00 00 00 	lw $4,528($29)
  402f9c:	10 02 04 1d 
  402fa0:	02 00 00 00 	jal 424dd0 <fclose>
  402fa4:	74 93 10 00 
  402fa8:	28 00 00 00 	lw $2,492($29)
  402fac:	ec 01 02 1d 
  402fb0:	42 00 00 00 	addu $4,$0,$0
  402fb4:	00 04 00 00 
  402fb8:	05 00 00 00 	beq $2,$0,402fc8 <main+0x1928>
  402fbc:	02 00 00 02 
  402fc0:	43 00 00 00 	addiu $4,$0,2
  402fc4:	02 00 04 00 
  402fc8:	02 00 00 00 	jal 421420 <exit>
  402fcc:	08 85 10 00 
  402fd0:	28 00 00 00 	lw $31,660($29)
  402fd4:	94 02 1f 1d 
  402fd8:	28 00 00 00 	lw $30,656($29)
  402fdc:	90 02 1e 1d 
  402fe0:	28 00 00 00 	lw $23,652($29)
  402fe4:	8c 02 17 1d 
  402fe8:	28 00 00 00 	lw $22,648($29)
  402fec:	88 02 16 1d 
  402ff0:	28 00 00 00 	lw $21,644($29)
  402ff4:	84 02 15 1d 
  402ff8:	28 00 00 00 	lw $20,640($29)
  402ffc:	80 02 14 1d 
  403000:	28 00 00 00 	lw $19,636($29)
  403004:	7c 02 13 1d 
  403008:	28 00 00 00 	lw $18,632($29)
  40300c:	78 02 12 1d 
  403010:	28 00 00 00 	lw $17,628($29)
  403014:	74 02 11 1d 
  403018:	28 00 00 00 	lw $16,624($29)
  40301c:	70 02 10 1d 
  403020:	43 00 00 00 	addiu $29,$29,664
  403024:	98 02 1d 1d 
  403028:	03 00 00 00 	jr $31
  40302c:	00 00 00 1f 

00403030 <pbm_getc>:
  403030:	43 00 00 00 	addiu $29,$29,-32
  403034:	e0 ff 1d 1d 
  403038:	34 00 00 00 	sw $16,16($29)
  40303c:	10 00 10 1d 
  403040:	42 00 00 00 	addu $16,$0,$4
  403044:	00 10 04 00 
  403048:	34 00 00 00 	sw $31,28($29)
  40304c:	1c 00 1f 1d 
  403050:	34 00 00 00 	sw $18,24($29)
  403054:	18 00 12 1d 
  403058:	34 00 00 00 	sw $17,20($29)
  40305c:	14 00 11 1d 
  403060:	28 00 00 00 	lw $3,4($16)
  403064:	04 00 03 10 
  403068:	28 00 00 00 	lw $2,8($16)
  40306c:	08 00 02 10 
  403070:	5d 00 00 00 	sltu $2,$3,$2
  403074:	00 02 02 03 
  403078:	05 00 00 00 	beq $2,$0,4030a0 <pbm_getc+0x70>
  40307c:	08 00 00 02 
  403080:	43 00 00 00 	addiu $2,$3,1
  403084:	01 00 02 03 
  403088:	34 00 00 00 	sw $2,4($16)
  40308c:	04 00 02 10 
  403090:	22 00 00 00 	lbu $3,0($3)
  403094:	00 00 03 03 
  403098:	01 00 00 00 	j 4030b8 <pbm_getc+0x88>
  40309c:	2e 0c 10 00 
  4030a0:	42 00 00 00 	addu $4,$0,$16
  4030a4:	00 04 10 00 
  4030a8:	02 00 00 00 	jal 422de8 <__fillbf>
  4030ac:	7a 8b 10 00 
  4030b0:	42 00 00 00 	addu $3,$0,$2
  4030b4:	00 03 02 00 
  4030b8:	43 00 00 00 	addiu $2,$0,35
  4030bc:	23 00 02 00 
  4030c0:	06 00 00 00 	bne $3,$2,403140 <pbm_getc+0x110>
  4030c4:	1e 00 02 03 
  4030c8:	43 00 00 00 	addiu $18,$0,10
  4030cc:	0a 00 12 00 
  4030d0:	43 00 00 00 	addiu $17,$0,-1
  4030d4:	ff ff 11 00 
  4030d8:	28 00 00 00 	lw $3,4($16)
  4030dc:	04 00 03 10 
  4030e0:	28 00 00 00 	lw $2,8($16)
  4030e4:	08 00 02 10 
  4030e8:	5d 00 00 00 	sltu $2,$3,$2
  4030ec:	00 02 02 03 
  4030f0:	05 00 00 00 	beq $2,$0,403118 <pbm_getc+0xe8>
  4030f4:	08 00 00 02 
  4030f8:	43 00 00 00 	addiu $2,$3,1
  4030fc:	01 00 02 03 
  403100:	34 00 00 00 	sw $2,4($16)
  403104:	04 00 02 10 
  403108:	22 00 00 00 	lbu $3,0($3)
  40310c:	00 00 03 03 
  403110:	01 00 00 00 	j 403130 <pbm_getc+0x100>
  403114:	4c 0c 10 00 
  403118:	42 00 00 00 	addu $4,$0,$16
  40311c:	00 04 10 00 
  403120:	02 00 00 00 	jal 422de8 <__fillbf>
  403124:	7a 8b 10 00 
  403128:	42 00 00 00 	addu $3,$0,$2
  40312c:	00 03 02 00 
  403130:	05 00 00 00 	beq $3,$18,403140 <pbm_getc+0x110>
  403134:	02 00 12 03 
  403138:	06 00 00 00 	bne $3,$17,4030d8 <pbm_getc+0xa8>
  40313c:	e6 ff 11 03 
  403140:	42 00 00 00 	addu $2,$0,$3
  403144:	00 02 03 00 
  403148:	28 00 00 00 	lw $31,28($29)
  40314c:	1c 00 1f 1d 
  403150:	28 00 00 00 	lw $18,24($29)
  403154:	18 00 12 1d 
  403158:	28 00 00 00 	lw $17,20($29)
  40315c:	14 00 11 1d 
  403160:	28 00 00 00 	lw $16,16($29)
  403164:	10 00 10 1d 
  403168:	43 00 00 00 	addiu $29,$29,32
  40316c:	20 00 1d 1d 
  403170:	03 00 00 00 	jr $31
  403174:	00 00 00 1f 

00403178 <read_pbm_integer>:
  403178:	43 00 00 00 	addiu $29,$29,-48
  40317c:	d0 ff 1d 1d 
  403180:	34 00 00 00 	sw $16,16($29)
  403184:	10 00 10 1d 
  403188:	42 00 00 00 	addu $16,$0,$4
  40318c:	00 10 04 00 
  403190:	34 00 00 00 	sw $18,24($29)
  403194:	18 00 12 1d 
  403198:	42 00 00 00 	addu $18,$0,$5
  40319c:	00 12 05 00 
  4031a0:	34 00 00 00 	sw $22,40($29)
  4031a4:	28 00 16 1d 
  4031a8:	43 00 00 00 	addiu $22,$0,-1
  4031ac:	ff ff 16 00 
  4031b0:	34 00 00 00 	sw $21,36($29)
  4031b4:	24 00 15 1d 
  4031b8:	43 00 00 00 	addiu $21,$0,42
  4031bc:	2a 00 15 00 
  4031c0:	34 00 00 00 	sw $20,32($29)
  4031c4:	20 00 14 1d 
  4031c8:	43 00 00 00 	addiu $20,$0,32
  4031cc:	20 00 14 00 
  4031d0:	34 00 00 00 	sw $19,28($29)
  4031d4:	1c 00 13 1d 
  4031d8:	43 00 00 00 	addiu $19,$0,13
  4031dc:	0d 00 13 00 
  4031e0:	34 00 00 00 	sw $31,44($29)
  4031e4:	2c 00 1f 1d 
  4031e8:	34 00 00 00 	sw $17,20($29)
  4031ec:	14 00 11 1d 
  4031f0:	42 00 00 00 	addu $4,$0,$18
  4031f4:	00 04 12 00 
  4031f8:	02 00 00 00 	jal 403030 <pbm_getc>
  4031fc:	0c 0c 10 00 
  403200:	42 00 00 00 	addu $17,$0,$2
  403204:	00 11 02 00 
  403208:	06 00 00 00 	bne $17,$22,403240 <read_pbm_integer+0xc8>
  40320c:	0c 00 16 11 
  403210:	28 00 00 00 	lw $2,0($16)
  403214:	00 00 02 10 
  403218:	34 00 00 00 	sw $21,20($2)
  40321c:	14 00 15 02 
  403220:	28 00 00 00 	lw $2,0($16)
  403224:	00 00 02 10 
  403228:	28 00 00 00 	lw $2,0($2)
  40322c:	00 00 02 02 
  403230:	42 00 00 00 	addu $4,$0,$16
  403234:	00 04 10 00 
  403238:	04 00 00 00 	jalr $31,$2
  40323c:	00 1f 00 02 
  403240:	05 00 00 00 	beq $17,$20,4031f0 <read_pbm_integer+0x78>
  403244:	ea ff 14 11 
  403248:	43 00 00 00 	addiu $2,$17,-9
  40324c:	f7 ff 02 11 
  403250:	5e 00 00 00 	sltiu $2,$2,2
  403254:	02 00 02 02 
  403258:	06 00 00 00 	bne $2,$0,4031f0 <read_pbm_integer+0x78>
  40325c:	e4 ff 00 02 
  403260:	05 00 00 00 	beq $17,$19,4031f0 <read_pbm_integer+0x78>
  403264:	e2 ff 13 11 
  403268:	43 00 00 00 	addiu $2,$17,-48
  40326c:	d0 ff 02 11 
  403270:	5e 00 00 00 	sltiu $2,$2,10
  403274:	0a 00 02 02 
  403278:	06 00 00 00 	bne $2,$0,4032b8 <read_pbm_integer+0x140>
  40327c:	0e 00 00 02 
  403280:	28 00 00 00 	lw $3,0($16)
  403284:	00 00 03 10 
  403288:	43 00 00 00 	addiu $2,$0,1026
  40328c:	02 04 02 00 
  403290:	34 00 00 00 	sw $2,20($3)
  403294:	14 00 02 03 
  403298:	28 00 00 00 	lw $2,0($16)
  40329c:	00 00 02 10 
  4032a0:	28 00 00 00 	lw $2,0($2)
  4032a4:	00 00 02 02 
  4032a8:	42 00 00 00 	addu $4,$0,$16
  4032ac:	00 04 10 00 
  4032b0:	04 00 00 00 	jalr $31,$2
  4032b4:	00 1f 00 02 
  4032b8:	43 00 00 00 	addiu $16,$17,-48
  4032bc:	d0 ff 10 11 
  4032c0:	42 00 00 00 	addu $4,$0,$18
  4032c4:	00 04 12 00 
  4032c8:	02 00 00 00 	jal 403030 <pbm_getc>
  4032cc:	0c 0c 10 00 
  4032d0:	42 00 00 00 	addu $17,$0,$2
  4032d4:	00 11 02 00 
  4032d8:	5c 00 00 00 	slti $2,$17,48
  4032dc:	30 00 02 11 
  4032e0:	06 00 00 00 	bne $2,$0,403328 <read_pbm_integer+0x1b0>
  4032e4:	10 00 00 02 
  4032e8:	5c 00 00 00 	slti $2,$17,58
  4032ec:	3a 00 02 11 
  4032f0:	05 00 00 00 	beq $2,$0,403328 <read_pbm_integer+0x1b0>
  4032f4:	0c 00 00 02 
  4032f8:	55 00 00 00 	sll $2,$16,0x2
  4032fc:	02 02 10 00 
  403300:	42 00 00 00 	addu $2,$2,$16
  403304:	00 02 10 02 
  403308:	55 00 00 00 	sll $16,$2,0x1
  40330c:	01 10 02 00 
  403310:	43 00 00 00 	addiu $2,$16,-48
  403314:	d0 ff 02 10 
  403318:	42 00 00 00 	addu $16,$2,$17
  40331c:	00 10 11 02 
  403320:	01 00 00 00 	j 4032c0 <read_pbm_integer+0x148>
  403324:	b0 0c 10 00 
  403328:	42 00 00 00 	addu $2,$0,$16
  40332c:	00 02 10 00 
  403330:	28 00 00 00 	lw $31,44($29)
  403334:	2c 00 1f 1d 
  403338:	28 00 00 00 	lw $22,40($29)
  40333c:	28 00 16 1d 
  403340:	28 00 00 00 	lw $21,36($29)
  403344:	24 00 15 1d 
  403348:	28 00 00 00 	lw $20,32($29)
  40334c:	20 00 14 1d 
  403350:	28 00 00 00 	lw $19,28($29)
  403354:	1c 00 13 1d 
  403358:	28 00 00 00 	lw $18,24($29)
  40335c:	18 00 12 1d 
  403360:	28 00 00 00 	lw $17,20($29)
  403364:	14 00 11 1d 
  403368:	28 00 00 00 	lw $16,16($29)
  40336c:	10 00 10 1d 
  403370:	43 00 00 00 	addiu $29,$29,48
  403374:	30 00 1d 1d 
  403378:	03 00 00 00 	jr $31
  40337c:	00 00 00 1f 

00403380 <get_text_gray_row>:
  403380:	43 00 00 00 	addiu $29,$29,-40
  403384:	d8 ff 1d 1d 
  403388:	34 00 00 00 	sw $18,24($29)
  40338c:	18 00 12 1d 
  403390:	42 00 00 00 	addu $18,$0,$4
  403394:	00 12 04 00 
  403398:	34 00 00 00 	sw $31,36($29)
  40339c:	24 00 1f 1d 
  4033a0:	34 00 00 00 	sw $20,32($29)
  4033a4:	20 00 14 1d 
  4033a8:	34 00 00 00 	sw $19,28($29)
  4033ac:	1c 00 13 1d 
  4033b0:	34 00 00 00 	sw $17,20($29)
  4033b4:	14 00 11 1d 
  4033b8:	34 00 00 00 	sw $16,16($29)
  4033bc:	10 00 10 1d 
  4033c0:	28 00 00 00 	lw $2,16($5)
  4033c4:	10 00 02 05 
  4033c8:	28 00 00 00 	lw $16,24($18)
  4033cc:	18 00 10 12 
  4033d0:	28 00 00 00 	lw $20,12($5)
  4033d4:	0c 00 14 05 
  4033d8:	28 00 00 00 	lw $19,36($5)
  4033dc:	24 00 13 05 
  4033e0:	28 00 00 00 	lw $17,0($2)
  4033e4:	00 00 11 02 
  4033e8:	05 00 00 00 	beq $16,$0,403438 <get_text_gray_row+0xb8>
  4033ec:	12 00 00 10 
  4033f0:	42 00 00 00 	addu $4,$0,$18
  4033f4:	00 04 12 00 
  4033f8:	42 00 00 00 	addu $5,$0,$20
  4033fc:	00 05 14 00 
  403400:	02 00 00 00 	jal 403178 <read_pbm_integer>
  403404:	5e 0c 10 00 
  403408:	42 00 00 00 	addu $2,$19,$2
  40340c:	00 02 02 13 
  403410:	22 00 00 00 	lbu $2,0($2)
  403414:	00 00 02 02 
  403418:	43 00 00 00 	addiu $16,$16,-1
  40341c:	ff ff 10 10 
  403420:	30 00 00 00 	sb $2,0($17)
  403424:	00 00 02 11 
  403428:	43 00 00 00 	addiu $17,$17,1
  40342c:	01 00 11 11 
  403430:	06 00 00 00 	bne $16,$0,4033f0 <get_text_gray_row+0x70>
  403434:	ee ff 00 10 
  403438:	43 00 00 00 	addiu $2,$0,1
  40343c:	01 00 02 00 
  403440:	28 00 00 00 	lw $31,36($29)
  403444:	24 00 1f 1d 
  403448:	28 00 00 00 	lw $20,32($29)
  40344c:	20 00 14 1d 
  403450:	28 00 00 00 	lw $19,28($29)
  403454:	1c 00 13 1d 
  403458:	28 00 00 00 	lw $18,24($29)
  40345c:	18 00 12 1d 
  403460:	28 00 00 00 	lw $17,20($29)
  403464:	14 00 11 1d 
  403468:	28 00 00 00 	lw $16,16($29)
  40346c:	10 00 10 1d 
  403470:	43 00 00 00 	addiu $29,$29,40
  403474:	28 00 1d 1d 
  403478:	03 00 00 00 	jr $31
  40347c:	00 00 00 1f 

00403480 <get_text_rgb_row>:
  403480:	43 00 00 00 	addiu $29,$29,-40
  403484:	d8 ff 1d 1d 
  403488:	34 00 00 00 	sw $18,24($29)
  40348c:	18 00 12 1d 
  403490:	42 00 00 00 	addu $18,$0,$4
  403494:	00 12 04 00 
  403498:	34 00 00 00 	sw $31,36($29)
  40349c:	24 00 1f 1d 
  4034a0:	34 00 00 00 	sw $20,32($29)
  4034a4:	20 00 14 1d 
  4034a8:	34 00 00 00 	sw $19,28($29)
  4034ac:	1c 00 13 1d 
  4034b0:	34 00 00 00 	sw $17,20($29)
  4034b4:	14 00 11 1d 
  4034b8:	34 00 00 00 	sw $16,16($29)
  4034bc:	10 00 10 1d 
  4034c0:	28 00 00 00 	lw $2,16($5)
  4034c4:	10 00 02 05 
  4034c8:	28 00 00 00 	lw $17,24($18)
  4034cc:	18 00 11 12 
  4034d0:	28 00 00 00 	lw $20,12($5)
  4034d4:	0c 00 14 05 
  4034d8:	28 00 00 00 	lw $19,36($5)
  4034dc:	24 00 13 05 
  4034e0:	28 00 00 00 	lw $16,0($2)
  4034e4:	00 00 10 02 
  4034e8:	05 00 00 00 	beq $17,$0,4035a8 <get_text_rgb_row+0x128>
  4034ec:	2e 00 00 11 
  4034f0:	42 00 00 00 	addu $4,$0,$18
  4034f4:	00 04 12 00 
  4034f8:	42 00 00 00 	addu $5,$0,$20
  4034fc:	00 05 14 00 
  403500:	02 00 00 00 	jal 403178 <read_pbm_integer>
  403504:	5e 0c 10 00 
  403508:	42 00 00 00 	addu $2,$19,$2
  40350c:	00 02 02 13 
  403510:	22 00 00 00 	lbu $2,0($2)
  403514:	00 00 02 02 
  403518:	42 00 00 00 	addu $4,$0,$18
  40351c:	00 04 12 00 
  403520:	42 00 00 00 	addu $5,$0,$20
  403524:	00 05 14 00 
  403528:	30 00 00 00 	sb $2,0($16)
  40352c:	00 00 02 10 
  403530:	43 00 00 00 	addiu $16,$16,1
  403534:	01 00 10 10 
  403538:	02 00 00 00 	jal 403178 <read_pbm_integer>
  40353c:	5e 0c 10 00 
  403540:	42 00 00 00 	addu $2,$19,$2
  403544:	00 02 02 13 
  403548:	22 00 00 00 	lbu $2,0($2)
  40354c:	00 00 02 02 
  403550:	42 00 00 00 	addu $4,$0,$18
  403554:	00 04 12 00 
  403558:	42 00 00 00 	addu $5,$0,$20
  40355c:	00 05 14 00 
  403560:	30 00 00 00 	sb $2,0($16)
  403564:	00 00 02 10 
  403568:	02 00 00 00 	jal 403178 <read_pbm_integer>
  40356c:	5e 0c 10 00 
  403570:	42 00 00 00 	addu $2,$19,$2
  403574:	00 02 02 13 
  403578:	22 00 00 00 	lbu $2,0($2)
  40357c:	00 00 02 02 
  403580:	43 00 00 00 	addiu $16,$16,1
  403584:	01 00 10 10 
  403588:	43 00 00 00 	addiu $17,$17,-1
  40358c:	ff ff 11 11 
  403590:	30 00 00 00 	sb $2,0($16)
  403594:	00 00 02 10 
  403598:	43 00 00 00 	addiu $16,$16,1
  40359c:	01 00 10 10 
  4035a0:	06 00 00 00 	bne $17,$0,4034f0 <get_text_rgb_row+0x70>
  4035a4:	d2 ff 00 11 
  4035a8:	43 00 00 00 	addiu $2,$0,1
  4035ac:	01 00 02 00 
  4035b0:	28 00 00 00 	lw $31,36($29)
  4035b4:	24 00 1f 1d 
  4035b8:	28 00 00 00 	lw $20,32($29)
  4035bc:	20 00 14 1d 
  4035c0:	28 00 00 00 	lw $19,28($29)
  4035c4:	1c 00 13 1d 
  4035c8:	28 00 00 00 	lw $18,24($29)
  4035cc:	18 00 12 1d 
  4035d0:	28 00 00 00 	lw $17,20($29)
  4035d4:	14 00 11 1d 
  4035d8:	28 00 00 00 	lw $16,16($29)
  4035dc:	10 00 10 1d 
  4035e0:	43 00 00 00 	addiu $29,$29,40
  4035e4:	28 00 1d 1d 
  4035e8:	03 00 00 00 	jr $31
  4035ec:	00 00 00 1f 

004035f0 <get_scaled_gray_row>:
  4035f0:	43 00 00 00 	addiu $29,$29,-32
  4035f4:	e0 ff 1d 1d 
  4035f8:	34 00 00 00 	sw $17,20($29)
  4035fc:	14 00 11 1d 
  403600:	42 00 00 00 	addu $17,$0,$4
  403604:	00 11 04 00 
  403608:	34 00 00 00 	sw $16,16($29)
  40360c:	10 00 10 1d 
  403610:	42 00 00 00 	addu $16,$0,$5
  403614:	00 10 05 00 
  403618:	34 00 00 00 	sw $31,28($29)
  40361c:	1c 00 1f 1d 
  403620:	34 00 00 00 	sw $18,24($29)
  403624:	18 00 12 1d 
  403628:	28 00 00 00 	lw $18,36($16)
  40362c:	24 00 12 10 
  403630:	28 00 00 00 	lw $4,24($16)
  403634:	18 00 04 10 
  403638:	28 00 00 00 	lw $6,32($16)
  40363c:	20 00 06 10 
  403640:	28 00 00 00 	lw $7,12($16)
  403644:	0c 00 07 10 
  403648:	43 00 00 00 	addiu $5,$0,1
  40364c:	01 00 05 00 
  403650:	02 00 00 00 	jal 425050 <fread>
  403654:	14 94 10 00 
  403658:	28 00 00 00 	lw $3,32($16)
  40365c:	20 00 03 10 
  403660:	05 00 00 00 	beq $2,$3,4036a0 <get_scaled_gray_row+0xb0>
  403664:	0e 00 03 02 
  403668:	28 00 00 00 	lw $3,0($17)
  40366c:	00 00 03 11 
  403670:	43 00 00 00 	addiu $2,$0,42
  403674:	2a 00 02 00 
  403678:	34 00 00 00 	sw $2,20($3)
  40367c:	14 00 02 03 
  403680:	28 00 00 00 	lw $2,0($17)
  403684:	00 00 02 11 
  403688:	28 00 00 00 	lw $2,0($2)
  40368c:	00 00 02 02 
  403690:	42 00 00 00 	addu $4,$0,$17
  403694:	00 04 11 00 
  403698:	04 00 00 00 	jalr $31,$2
  40369c:	00 1f 00 02 
  4036a0:	28 00 00 00 	lw $2,16($16)
  4036a4:	10 00 02 10 
  4036a8:	28 00 00 00 	lw $3,24($17)
  4036ac:	18 00 03 11 
  4036b0:	28 00 00 00 	lw $5,24($16)
  4036b4:	18 00 05 10 
  4036b8:	28 00 00 00 	lw $4,0($2)
  4036bc:	00 00 04 02 
  4036c0:	05 00 00 00 	beq $3,$0,403708 <get_scaled_gray_row+0x118>
  4036c4:	10 00 00 03 
  4036c8:	22 00 00 00 	lbu $2,0($5)
  4036cc:	00 00 02 05 
  4036d0:	42 00 00 00 	addu $2,$18,$2
  4036d4:	00 02 02 12 
  4036d8:	22 00 00 00 	lbu $2,0($2)
  4036dc:	00 00 02 02 
  4036e0:	43 00 00 00 	addiu $3,$3,-1
  4036e4:	ff ff 03 03 
  4036e8:	43 00 00 00 	addiu $5,$5,1
  4036ec:	01 00 05 05 
  4036f0:	30 00 00 00 	sb $2,0($4)
  4036f4:	00 00 02 04 
  4036f8:	43 00 00 00 	addiu $4,$4,1
  4036fc:	01 00 04 04 
  403700:	06 00 00 00 	bne $3,$0,4036c8 <get_scaled_gray_row+0xd8>
  403704:	f0 ff 00 03 
  403708:	43 00 00 00 	addiu $2,$0,1
  40370c:	01 00 02 00 
  403710:	28 00 00 00 	lw $31,28($29)
  403714:	1c 00 1f 1d 
  403718:	28 00 00 00 	lw $18,24($29)
  40371c:	18 00 12 1d 
  403720:	28 00 00 00 	lw $17,20($29)
  403724:	14 00 11 1d 
  403728:	28 00 00 00 	lw $16,16($29)
  40372c:	10 00 10 1d 
  403730:	43 00 00 00 	addiu $29,$29,32
  403734:	20 00 1d 1d 
  403738:	03 00 00 00 	jr $31
  40373c:	00 00 00 1f 

00403740 <get_scaled_rgb_row>:
  403740:	43 00 00 00 	addiu $29,$29,-32
  403744:	e0 ff 1d 1d 
  403748:	34 00 00 00 	sw $17,20($29)
  40374c:	14 00 11 1d 
  403750:	42 00 00 00 	addu $17,$0,$4
  403754:	00 11 04 00 
  403758:	34 00 00 00 	sw $16,16($29)
  40375c:	10 00 10 1d 
  403760:	42 00 00 00 	addu $16,$0,$5
  403764:	00 10 05 00 
  403768:	34 00 00 00 	sw $31,28($29)
  40376c:	1c 00 1f 1d 
  403770:	34 00 00 00 	sw $18,24($29)
  403774:	18 00 12 1d 
  403778:	28 00 00 00 	lw $18,36($16)
  40377c:	24 00 12 10 
  403780:	28 00 00 00 	lw $4,24($16)
  403784:	18 00 04 10 
  403788:	28 00 00 00 	lw $6,32($16)
  40378c:	20 00 06 10 
  403790:	28 00 00 00 	lw $7,12($16)
  403794:	0c 00 07 10 
  403798:	43 00 00 00 	addiu $5,$0,1
  40379c:	01 00 05 00 
  4037a0:	02 00 00 00 	jal 425050 <fread>
  4037a4:	14 94 10 00 
  4037a8:	28 00 00 00 	lw $3,32($16)
  4037ac:	20 00 03 10 
  4037b0:	05 00 00 00 	beq $2,$3,4037f0 <get_scaled_rgb_row+0xb0>
  4037b4:	0e 00 03 02 
  4037b8:	28 00 00 00 	lw $3,0($17)
  4037bc:	00 00 03 11 
  4037c0:	43 00 00 00 	addiu $2,$0,42
  4037c4:	2a 00 02 00 
  4037c8:	34 00 00 00 	sw $2,20($3)
  4037cc:	14 00 02 03 
  4037d0:	28 00 00 00 	lw $2,0($17)
  4037d4:	00 00 02 11 
  4037d8:	28 00 00 00 	lw $2,0($2)
  4037dc:	00 00 02 02 
  4037e0:	42 00 00 00 	addu $4,$0,$17
  4037e4:	00 04 11 00 
  4037e8:	04 00 00 00 	jalr $31,$2
  4037ec:	00 1f 00 02 
  4037f0:	28 00 00 00 	lw $2,16($16)
  4037f4:	10 00 02 10 
  4037f8:	28 00 00 00 	lw $3,24($17)
  4037fc:	18 00 03 11 
  403800:	28 00 00 00 	lw $5,24($16)
  403804:	18 00 05 10 
  403808:	28 00 00 00 	lw $6,0($2)
  40380c:	00 00 06 02 
  403810:	05 00 00 00 	beq $3,$0,4038b8 <get_scaled_rgb_row+0x178>
  403814:	28 00 00 03 
  403818:	22 00 00 00 	lbu $2,0($5)
  40381c:	00 00 02 05 
  403820:	42 00 00 00 	addu $2,$18,$2
  403824:	00 02 02 12 
  403828:	22 00 00 00 	lbu $2,0($2)
  40382c:	00 00 02 02 
  403830:	43 00 00 00 	addiu $5,$5,1
  403834:	01 00 05 05 
  403838:	30 00 00 00 	sb $2,0($6)
  40383c:	00 00 02 06 
  403840:	22 00 00 00 	lbu $2,0($5)
  403844:	00 00 02 05 
  403848:	42 00 00 00 	addu $2,$18,$2
  40384c:	00 02 02 12 
  403850:	22 00 00 00 	lbu $2,0($2)
  403854:	00 00 02 02 
  403858:	43 00 00 00 	addiu $6,$6,1
  40385c:	01 00 06 06 
  403860:	43 00 00 00 	addiu $5,$5,1
  403864:	01 00 05 05 
  403868:	30 00 00 00 	sb $2,0($6)
  40386c:	00 00 02 06 
  403870:	22 00 00 00 	lbu $2,0($5)
  403874:	00 00 02 05 
  403878:	43 00 00 00 	addiu $3,$3,-1
  40387c:	ff ff 03 03 
  403880:	42 00 00 00 	addu $2,$18,$2
  403884:	00 02 02 12 
  403888:	22 00 00 00 	lbu $2,0($2)
  40388c:	00 00 02 02 
  403890:	43 00 00 00 	addiu $6,$6,1
  403894:	01 00 06 06 
  403898:	43 00 00 00 	addiu $5,$5,1
  40389c:	01 00 05 05 
  4038a0:	30 00 00 00 	sb $2,0($6)
  4038a4:	00 00 02 06 
  4038a8:	43 00 00 00 	addiu $6,$6,1
  4038ac:	01 00 06 06 
  4038b0:	06 00 00 00 	bne $3,$0,403818 <get_scaled_rgb_row+0xd8>
  4038b4:	d8 ff 00 03 
  4038b8:	43 00 00 00 	addiu $2,$0,1
  4038bc:	01 00 02 00 
  4038c0:	28 00 00 00 	lw $31,28($29)
  4038c4:	1c 00 1f 1d 
  4038c8:	28 00 00 00 	lw $18,24($29)
  4038cc:	18 00 12 1d 
  4038d0:	28 00 00 00 	lw $17,20($29)
  4038d4:	14 00 11 1d 
  4038d8:	28 00 00 00 	lw $16,16($29)
  4038dc:	10 00 10 1d 
  4038e0:	43 00 00 00 	addiu $29,$29,32
  4038e4:	20 00 1d 1d 
  4038e8:	03 00 00 00 	jr $31
  4038ec:	00 00 00 1f 

004038f0 <get_raw_row>:
  4038f0:	28 00 00 00 	lw $2,32($5)
  4038f4:	20 00 02 05 
  4038f8:	43 00 00 00 	addiu $29,$29,-8
  4038fc:	f8 ff 1d 1d 
  403900:	42 00 00 00 	addu $6,$0,$0
  403904:	00 06 00 00 
  403908:	05 00 00 00 	beq $2,$0,403998 <get_raw_row+0xa8>
  40390c:	22 00 00 02 
  403910:	28 00 00 00 	lw $4,-31400($28)
  403914:	58 85 04 1c 
  403918:	28 00 00 00 	lw $2,-31408($28)
  40391c:	50 85 02 1c 
  403920:	5b 00 00 00 	slt $2,$4,$2
  403924:	00 02 02 04 
  403928:	05 00 00 00 	beq $2,$0,403978 <get_raw_row+0x88>
  40392c:	12 00 00 02 
  403930:	28 00 00 00 	lw $2,-31404($28)
  403934:	54 85 02 1c 
  403938:	28 00 00 00 	lw $3,24($5)
  40393c:	18 00 03 05 
  403940:	42 00 00 00 	addu $2,$2,$4
  403944:	00 02 04 02 
  403948:	22 00 00 00 	lbu $2,0($2)
  40394c:	00 00 02 02 
  403950:	42 00 00 00 	addu $3,$3,$6
  403954:	00 03 06 03 
  403958:	30 00 00 00 	sb $2,0($3)
  40395c:	00 00 02 03 
  403960:	28 00 00 00 	lw $2,-31400($28)
  403964:	58 85 02 1c 
  403968:	43 00 00 00 	addiu $2,$2,1
  40396c:	01 00 02 02 
  403970:	34 00 00 00 	sw $2,-31400($28)
  403974:	58 85 02 1c 
  403978:	28 00 00 00 	lw $2,32($5)
  40397c:	20 00 02 05 
  403980:	43 00 00 00 	addiu $6,$6,1
  403984:	01 00 06 06 
  403988:	5d 00 00 00 	sltu $2,$6,$2
  40398c:	00 02 02 06 
  403990:	06 00 00 00 	bne $2,$0,403910 <get_raw_row+0x20>
  403994:	de ff 00 02 
  403998:	43 00 00 00 	addiu $2,$0,1
  40399c:	01 00 02 00 
  4039a0:	43 00 00 00 	addiu $29,$29,8
  4039a4:	08 00 1d 1d 
  4039a8:	03 00 00 00 	jr $31
  4039ac:	00 00 00 1f 

004039b0 <get_buffer_width>:
  4039b0:	28 00 00 00 	lw $2,32($4)
  4039b4:	20 00 02 04 
  4039b8:	03 00 00 00 	jr $31
  4039bc:	00 00 00 1f 

004039c0 <get_image_size>:
  4039c0:	28 00 00 00 	lw $2,-31408($28)
  4039c4:	50 85 02 1c 
  4039c8:	03 00 00 00 	jr $31
  4039cc:	00 00 00 1f 

004039d0 <get_local_image>:
  4039d0:	28 00 00 00 	lw $2,-31404($28)
  4039d4:	54 85 02 1c 
  4039d8:	03 00 00 00 	jr $31
  4039dc:	00 00 00 1f 

004039e0 <get_word_gray_row>:
  4039e0:	43 00 00 00 	addiu $29,$29,-32
  4039e4:	e0 ff 1d 1d 
  4039e8:	34 00 00 00 	sw $17,20($29)
  4039ec:	14 00 11 1d 
  4039f0:	42 00 00 00 	addu $17,$0,$4
  4039f4:	00 11 04 00 
  4039f8:	34 00 00 00 	sw $16,16($29)
  4039fc:	10 00 10 1d 
  403a00:	42 00 00 00 	addu $16,$0,$5
  403a04:	00 10 05 00 
  403a08:	34 00 00 00 	sw $31,28($29)
  403a0c:	1c 00 1f 1d 
  403a10:	34 00 00 00 	sw $18,24($29)
  403a14:	18 00 12 1d 
  403a18:	28 00 00 00 	lw $18,36($16)
  403a1c:	24 00 12 10 
  403a20:	28 00 00 00 	lw $4,24($16)
  403a24:	18 00 04 10 
  403a28:	28 00 00 00 	lw $6,32($16)
  403a2c:	20 00 06 10 
  403a30:	28 00 00 00 	lw $7,12($16)
  403a34:	0c 00 07 10 
  403a38:	43 00 00 00 	addiu $5,$0,1
  403a3c:	01 00 05 00 
  403a40:	02 00 00 00 	jal 425050 <fread>
  403a44:	14 94 10 00 
  403a48:	28 00 00 00 	lw $3,32($16)
  403a4c:	20 00 03 10 
  403a50:	05 00 00 00 	beq $2,$3,403a90 <get_word_gray_row+0xb0>
  403a54:	0e 00 03 02 
  403a58:	28 00 00 00 	lw $3,0($17)
  403a5c:	00 00 03 11 
  403a60:	43 00 00 00 	addiu $2,$0,42
  403a64:	2a 00 02 00 
  403a68:	34 00 00 00 	sw $2,20($3)
  403a6c:	14 00 02 03 
  403a70:	28 00 00 00 	lw $2,0($17)
  403a74:	00 00 02 11 
  403a78:	28 00 00 00 	lw $2,0($2)
  403a7c:	00 00 02 02 
  403a80:	42 00 00 00 	addu $4,$0,$17
  403a84:	00 04 11 00 
  403a88:	04 00 00 00 	jalr $31,$2
  403a8c:	00 1f 00 02 
  403a90:	28 00 00 00 	lw $2,16($16)
  403a94:	10 00 02 10 
  403a98:	28 00 00 00 	lw $4,24($17)
  403a9c:	18 00 04 11 
  403aa0:	28 00 00 00 	lw $5,24($16)
  403aa4:	18 00 05 10 
  403aa8:	28 00 00 00 	lw $6,0($2)
  403aac:	00 00 06 02 
  403ab0:	05 00 00 00 	beq $4,$0,403b18 <get_word_gray_row+0x138>
  403ab4:	18 00 00 04 
  403ab8:	22 00 00 00 	lbu $2,0($5)
  403abc:	00 00 02 05 
  403ac0:	43 00 00 00 	addiu $5,$5,1
  403ac4:	01 00 05 05 
  403ac8:	22 00 00 00 	lbu $3,0($5)
  403acc:	00 00 03 05 
  403ad0:	55 00 00 00 	sll $3,$3,0x8
  403ad4:	08 03 03 00 
  403ad8:	50 00 00 00 	or $2,$2,$3
  403adc:	00 02 03 02 
  403ae0:	42 00 00 00 	addu $2,$18,$2
  403ae4:	00 02 02 12 
  403ae8:	22 00 00 00 	lbu $2,0($2)
  403aec:	00 00 02 02 
  403af0:	43 00 00 00 	addiu $4,$4,-1
  403af4:	ff ff 04 04 
  403af8:	43 00 00 00 	addiu $5,$5,1
  403afc:	01 00 05 05 
  403b00:	30 00 00 00 	sb $2,0($6)
  403b04:	00 00 02 06 
  403b08:	43 00 00 00 	addiu $6,$6,1
  403b0c:	01 00 06 06 
  403b10:	06 00 00 00 	bne $4,$0,403ab8 <get_word_gray_row+0xd8>
  403b14:	e8 ff 00 04 
  403b18:	43 00 00 00 	addiu $2,$0,1
  403b1c:	01 00 02 00 
  403b20:	28 00 00 00 	lw $31,28($29)
  403b24:	1c 00 1f 1d 
  403b28:	28 00 00 00 	lw $18,24($29)
  403b2c:	18 00 12 1d 
  403b30:	28 00 00 00 	lw $17,20($29)
  403b34:	14 00 11 1d 
  403b38:	28 00 00 00 	lw $16,16($29)
  403b3c:	10 00 10 1d 
  403b40:	43 00 00 00 	addiu $29,$29,32
  403b44:	20 00 1d 1d 
  403b48:	03 00 00 00 	jr $31
  403b4c:	00 00 00 1f 

00403b50 <get_word_rgb_row>:
  403b50:	43 00 00 00 	addiu $29,$29,-32
  403b54:	e0 ff 1d 1d 
  403b58:	34 00 00 00 	sw $17,20($29)
  403b5c:	14 00 11 1d 
  403b60:	42 00 00 00 	addu $17,$0,$4
  403b64:	00 11 04 00 
  403b68:	34 00 00 00 	sw $16,16($29)
  403b6c:	10 00 10 1d 
  403b70:	42 00 00 00 	addu $16,$0,$5
  403b74:	00 10 05 00 
  403b78:	34 00 00 00 	sw $31,28($29)
  403b7c:	1c 00 1f 1d 
  403b80:	34 00 00 00 	sw $18,24($29)
  403b84:	18 00 12 1d 
  403b88:	28 00 00 00 	lw $18,36($16)
  403b8c:	24 00 12 10 
  403b90:	28 00 00 00 	lw $4,24($16)
  403b94:	18 00 04 10 
  403b98:	28 00 00 00 	lw $6,32($16)
  403b9c:	20 00 06 10 
  403ba0:	28 00 00 00 	lw $7,12($16)
  403ba4:	0c 00 07 10 
  403ba8:	43 00 00 00 	addiu $5,$0,1
  403bac:	01 00 05 00 
  403bb0:	02 00 00 00 	jal 425050 <fread>
  403bb4:	14 94 10 00 
  403bb8:	28 00 00 00 	lw $3,32($16)
  403bbc:	20 00 03 10 
  403bc0:	05 00 00 00 	beq $2,$3,403c00 <get_word_rgb_row+0xb0>
  403bc4:	0e 00 03 02 
  403bc8:	28 00 00 00 	lw $3,0($17)
  403bcc:	00 00 03 11 
  403bd0:	43 00 00 00 	addiu $2,$0,42
  403bd4:	2a 00 02 00 
  403bd8:	34 00 00 00 	sw $2,20($3)
  403bdc:	14 00 02 03 
  403be0:	28 00 00 00 	lw $2,0($17)
  403be4:	00 00 02 11 
  403be8:	28 00 00 00 	lw $2,0($2)
  403bec:	00 00 02 02 
  403bf0:	42 00 00 00 	addu $4,$0,$17
  403bf4:	00 04 11 00 
  403bf8:	04 00 00 00 	jalr $31,$2
  403bfc:	00 1f 00 02 
  403c00:	28 00 00 00 	lw $2,16($16)
  403c04:	10 00 02 10 
  403c08:	28 00 00 00 	lw $3,24($17)
  403c0c:	18 00 03 11 
  403c10:	28 00 00 00 	lw $5,24($16)
  403c14:	18 00 05 10 
  403c18:	28 00 00 00 	lw $7,0($2)
  403c1c:	00 00 07 02 
  403c20:	05 00 00 00 	beq $3,$0,403d28 <get_word_rgb_row+0x1d8>
  403c24:	40 00 00 03 
  403c28:	22 00 00 00 	lbu $6,0($5)
  403c2c:	00 00 06 05 
  403c30:	43 00 00 00 	addiu $5,$5,1
  403c34:	01 00 05 05 
  403c38:	22 00 00 00 	lbu $2,0($5)
  403c3c:	00 00 02 05 
  403c40:	55 00 00 00 	sll $2,$2,0x8
  403c44:	08 02 02 00 
  403c48:	50 00 00 00 	or $6,$6,$2
  403c4c:	00 06 02 06 
  403c50:	42 00 00 00 	addu $2,$18,$6
  403c54:	00 02 06 12 
  403c58:	22 00 00 00 	lbu $2,0($2)
  403c5c:	00 00 02 02 
  403c60:	43 00 00 00 	addiu $5,$5,1
  403c64:	01 00 05 05 
  403c68:	30 00 00 00 	sb $2,0($7)
  403c6c:	00 00 02 07 
  403c70:	22 00 00 00 	lbu $6,0($5)
  403c74:	00 00 06 05 
  403c78:	43 00 00 00 	addiu $5,$5,1
  403c7c:	01 00 05 05 
  403c80:	22 00 00 00 	lbu $2,0($5)
  403c84:	00 00 02 05 
  403c88:	55 00 00 00 	sll $2,$2,0x8
  403c8c:	08 02 02 00 
  403c90:	50 00 00 00 	or $6,$6,$2
  403c94:	00 06 02 06 
  403c98:	42 00 00 00 	addu $2,$18,$6
  403c9c:	00 02 06 12 
  403ca0:	22 00 00 00 	lbu $2,0($2)
  403ca4:	00 00 02 02 
  403ca8:	43 00 00 00 	addiu $7,$7,1
  403cac:	01 00 07 07 
  403cb0:	43 00 00 00 	addiu $5,$5,1
  403cb4:	01 00 05 05 
  403cb8:	30 00 00 00 	sb $2,0($7)
  403cbc:	00 00 02 07 
  403cc0:	22 00 00 00 	lbu $6,0($5)
  403cc4:	00 00 06 05 
  403cc8:	43 00 00 00 	addiu $5,$5,1
  403ccc:	01 00 05 05 
  403cd0:	22 00 00 00 	lbu $2,0($5)
  403cd4:	00 00 02 05 
  403cd8:	43 00 00 00 	addiu $3,$3,-1
  403cdc:	ff ff 03 03 
  403ce0:	55 00 00 00 	sll $2,$2,0x8
  403ce4:	08 02 02 00 
  403ce8:	50 00 00 00 	or $6,$6,$2
  403cec:	00 06 02 06 
  403cf0:	42 00 00 00 	addu $2,$18,$6
  403cf4:	00 02 06 12 
  403cf8:	22 00 00 00 	lbu $2,0($2)
  403cfc:	00 00 02 02 
  403d00:	43 00 00 00 	addiu $7,$7,1
  403d04:	01 00 07 07 
  403d08:	43 00 00 00 	addiu $5,$5,1
  403d0c:	01 00 05 05 
  403d10:	30 00 00 00 	sb $2,0($7)
  403d14:	00 00 02 07 
  403d18:	43 00 00 00 	addiu $7,$7,1
  403d1c:	01 00 07 07 
  403d20:	06 00 00 00 	bne $3,$0,403c28 <get_word_rgb_row+0xd8>
  403d24:	c0 ff 00 03 
  403d28:	43 00 00 00 	addiu $2,$0,1
  403d2c:	01 00 02 00 
  403d30:	28 00 00 00 	lw $31,28($29)
  403d34:	1c 00 1f 1d 
  403d38:	28 00 00 00 	lw $18,24($29)
  403d3c:	18 00 12 1d 
  403d40:	28 00 00 00 	lw $17,20($29)
  403d44:	14 00 11 1d 
  403d48:	28 00 00 00 	lw $16,16($29)
  403d4c:	10 00 10 1d 
  403d50:	43 00 00 00 	addiu $29,$29,32
  403d54:	20 00 1d 1d 
  403d58:	03 00 00 00 	jr $31
  403d5c:	00 00 00 1f 

00403d60 <start_input_ppm>:
  403d60:	43 00 00 00 	addiu $29,$29,-56
  403d64:	c8 ff 1d 1d 
  403d68:	34 00 00 00 	sw $17,20($29)
  403d6c:	14 00 11 1d 
  403d70:	42 00 00 00 	addu $17,$0,$5
  403d74:	00 11 05 00 
  403d78:	34 00 00 00 	sw $31,52($29)
  403d7c:	34 00 1f 1d 
  403d80:	34 00 00 00 	sw $30,48($29)
  403d84:	30 00 1e 1d 
  403d88:	34 00 00 00 	sw $23,44($29)
  403d8c:	2c 00 17 1d 
  403d90:	34 00 00 00 	sw $22,40($29)
  403d94:	28 00 16 1d 
  403d98:	34 00 00 00 	sw $21,36($29)
  403d9c:	24 00 15 1d 
  403da0:	34 00 00 00 	sw $20,32($29)
  403da4:	20 00 14 1d 
  403da8:	34 00 00 00 	sw $19,28($29)
  403dac:	1c 00 13 1d 
  403db0:	34 00 00 00 	sw $18,24($29)
  403db4:	18 00 12 1d 
  403db8:	34 00 00 00 	sw $16,16($29)
  403dbc:	10 00 10 1d 
  403dc0:	28 00 00 00 	lw $3,12($17)
  403dc4:	0c 00 03 11 
  403dc8:	42 00 00 00 	addu $16,$0,$4
  403dcc:	00 10 04 00 
  403dd0:	28 00 00 00 	lw $4,4($3)
  403dd4:	04 00 04 03 
  403dd8:	28 00 00 00 	lw $2,8($3)
  403ddc:	08 00 02 03 
  403de0:	5d 00 00 00 	sltu $2,$4,$2
  403de4:	00 02 02 04 
  403de8:	05 00 00 00 	beq $2,$0,403e20 <start_input_ppm+0xc0>
  403dec:	0c 00 00 02 
  403df0:	43 00 00 00 	addiu $2,$4,1
  403df4:	01 00 02 04 
  403df8:	34 00 00 00 	sw $2,4($3)
  403dfc:	04 00 02 03 
  403e00:	22 00 00 00 	lbu $3,0($4)
  403e04:	00 00 03 04 
  403e08:	43 00 00 00 	addiu $2,$0,80
  403e0c:	50 00 02 00 
  403e10:	06 00 00 00 	bne $3,$2,403e40 <start_input_ppm+0xe0>
  403e14:	0a 00 02 03 
  403e18:	01 00 00 00 	j 403e78 <start_input_ppm+0x118>
  403e1c:	9e 0f 10 00 
  403e20:	28 00 00 00 	lw $4,12($17)
  403e24:	0c 00 04 11 
  403e28:	02 00 00 00 	jal 422de8 <__fillbf>
  403e2c:	7a 8b 10 00 
  403e30:	43 00 00 00 	addiu $3,$0,80
  403e34:	50 00 03 00 
  403e38:	05 00 00 00 	beq $2,$3,403e78 <start_input_ppm+0x118>
  403e3c:	0e 00 03 02 
  403e40:	28 00 00 00 	lw $3,0($16)
  403e44:	00 00 03 10 
  403e48:	43 00 00 00 	addiu $2,$0,1027
  403e4c:	03 04 02 00 
  403e50:	34 00 00 00 	sw $2,20($3)
  403e54:	14 00 02 03 
  403e58:	28 00 00 00 	lw $2,0($16)
  403e5c:	00 00 02 10 
  403e60:	28 00 00 00 	lw $2,0($2)
  403e64:	00 00 02 02 
  403e68:	42 00 00 00 	addu $4,$0,$16
  403e6c:	00 04 10 00 
  403e70:	04 00 00 00 	jalr $31,$2
  403e74:	00 1f 00 02 
  403e78:	28 00 00 00 	lw $3,12($17)
  403e7c:	0c 00 03 11 
  403e80:	28 00 00 00 	lw $4,4($3)
  403e84:	04 00 04 03 
  403e88:	28 00 00 00 	lw $2,8($3)
  403e8c:	08 00 02 03 
  403e90:	5d 00 00 00 	sltu $2,$4,$2
  403e94:	00 02 02 04 
  403e98:	05 00 00 00 	beq $2,$0,403ec0 <start_input_ppm+0x160>
  403e9c:	08 00 00 02 
  403ea0:	43 00 00 00 	addiu $2,$4,1
  403ea4:	01 00 02 04 
  403ea8:	34 00 00 00 	sw $2,4($3)
  403eac:	04 00 02 03 
  403eb0:	22 00 00 00 	lbu $18,0($4)
  403eb4:	00 00 12 04 
  403eb8:	01 00 00 00 	j 403ed8 <start_input_ppm+0x178>
  403ebc:	b6 0f 10 00 
  403ec0:	28 00 00 00 	lw $4,12($17)
  403ec4:	0c 00 04 11 
  403ec8:	02 00 00 00 	jal 422de8 <__fillbf>
  403ecc:	7a 8b 10 00 
  403ed0:	42 00 00 00 	addu $18,$0,$2
  403ed4:	00 12 02 00 
  403ed8:	28 00 00 00 	lw $5,12($17)
  403edc:	0c 00 05 11 
  403ee0:	42 00 00 00 	addu $4,$0,$16
  403ee4:	00 04 10 00 
  403ee8:	02 00 00 00 	jal 403178 <read_pbm_integer>
  403eec:	5e 0c 10 00 
  403ef0:	28 00 00 00 	lw $5,12($17)
  403ef4:	0c 00 05 11 
  403ef8:	42 00 00 00 	addu $21,$0,$2
  403efc:	00 15 02 00 
  403f00:	42 00 00 00 	addu $4,$0,$16
  403f04:	00 04 10 00 
  403f08:	02 00 00 00 	jal 403178 <read_pbm_integer>
  403f0c:	5e 0c 10 00 
  403f10:	28 00 00 00 	lw $5,12($17)
  403f14:	0c 00 05 11 
  403f18:	42 00 00 00 	addu $20,$0,$2
  403f1c:	00 14 02 00 
  403f20:	42 00 00 00 	addu $4,$0,$16
  403f24:	00 04 10 00 
  403f28:	02 00 00 00 	jal 403178 <read_pbm_integer>
  403f2c:	5e 0c 10 00 
  403f30:	42 00 00 00 	addu $19,$0,$2
  403f34:	00 13 02 00 
  403f38:	05 00 00 00 	beq $21,$0,403f50 <start_input_ppm+0x1f0>
  403f3c:	04 00 00 15 
  403f40:	05 00 00 00 	beq $20,$0,403f50 <start_input_ppm+0x1f0>
  403f44:	02 00 00 14 
  403f48:	06 00 00 00 	bne $19,$0,403f88 <start_input_ppm+0x228>
  403f4c:	0e 00 00 13 
  403f50:	28 00 00 00 	lw $3,0($16)
  403f54:	00 00 03 10 
  403f58:	43 00 00 00 	addiu $2,$0,1027
  403f5c:	03 04 02 00 
  403f60:	34 00 00 00 	sw $2,20($3)
  403f64:	14 00 02 03 
  403f68:	28 00 00 00 	lw $2,0($16)
  403f6c:	00 00 02 10 
  403f70:	28 00 00 00 	lw $2,0($2)
  403f74:	00 00 02 02 
  403f78:	42 00 00 00 	addu $4,$0,$16
  403f7c:	00 04 10 00 
  403f80:	04 00 00 00 	jalr $31,$2
  403f84:	00 1f 00 02 
  403f88:	43 00 00 00 	addiu $2,$0,8
  403f8c:	08 00 02 00 
  403f90:	43 00 00 00 	addiu $22,$0,1
  403f94:	01 00 16 00 
  403f98:	42 00 00 00 	addu $23,$0,$0
  403f9c:	00 17 00 00 
  403fa0:	43 00 00 00 	addiu $30,$0,1
  403fa4:	01 00 1e 00 
  403fa8:	34 00 00 00 	sw $2,48($16)
  403fac:	30 00 02 10 
  403fb0:	43 00 00 00 	addiu $2,$0,51
  403fb4:	33 00 02 00 
  403fb8:	34 00 00 00 	sw $21,24($16)
  403fbc:	18 00 15 10 
  403fc0:	34 00 00 00 	sw $20,28($16)
  403fc4:	1c 00 14 10 
  403fc8:	05 00 00 00 	beq $18,$2,4040b0 <start_input_ppm+0x350>
  403fcc:	38 00 02 12 
  403fd0:	5c 00 00 00 	slti $2,$18,52
  403fd4:	34 00 02 12 
  403fd8:	05 00 00 00 	beq $2,$0,403ff8 <start_input_ppm+0x298>
  403fdc:	06 00 00 02 
  403fe0:	43 00 00 00 	addiu $2,$0,50
  403fe4:	32 00 02 00 
  403fe8:	05 00 00 00 	beq $18,$2,404020 <start_input_ppm+0x2c0>
  403fec:	0c 00 02 12 
  403ff0:	01 00 00 00 	j 404340 <start_input_ppm+0x5e0>
  403ff4:	d0 10 10 00 
  403ff8:	43 00 00 00 	addiu $2,$0,53
  403ffc:	35 00 02 00 
  404000:	05 00 00 00 	beq $18,$2,404158 <start_input_ppm+0x3f8>
  404004:	54 00 02 12 
  404008:	43 00 00 00 	addiu $2,$0,54
  40400c:	36 00 02 00 
  404010:	05 00 00 00 	beq $18,$2,404230 <start_input_ppm+0x4d0>
  404014:	86 00 02 12 
  404018:	01 00 00 00 	j 404340 <start_input_ppm+0x5e0>
  40401c:	d0 10 10 00 
  404020:	28 00 00 00 	lw $3,0($16)
  404024:	00 00 03 10 
  404028:	43 00 00 00 	addiu $2,$0,1
  40402c:	01 00 02 00 
  404030:	34 00 00 00 	sw $2,32($16)
  404034:	20 00 02 10 
  404038:	34 00 00 00 	sw $2,36($16)
  40403c:	24 00 02 10 
  404040:	43 00 00 00 	addiu $2,$0,1029
  404044:	05 04 02 00 
  404048:	34 00 00 00 	sw $2,20($3)
  40404c:	14 00 02 03 
  404050:	28 00 00 00 	lw $2,0($16)
  404054:	00 00 02 10 
  404058:	34 00 00 00 	sw $21,24($2)
  40405c:	18 00 15 02 
  404060:	28 00 00 00 	lw $2,0($16)
  404064:	00 00 02 10 
  404068:	34 00 00 00 	sw $20,28($2)
  40406c:	1c 00 14 02 
  404070:	28 00 00 00 	lw $2,0($16)
  404074:	00 00 02 10 
  404078:	28 00 00 00 	lw $2,4($2)
  40407c:	04 00 02 02 
  404080:	42 00 00 00 	addu $4,$0,$16
  404084:	00 04 10 00 
  404088:	43 00 00 00 	addiu $5,$0,1
  40408c:	01 00 05 00 
  404090:	04 00 00 00 	jalr $31,$2
  404094:	00 1f 00 02 
  404098:	a2 00 00 00 	lui $2,64
  40409c:	40 00 02 00 
  4040a0:	43 00 00 00 	addiu $2,$2,13184
  4040a4:	80 33 02 02 
  4040a8:	01 00 00 00 	j 404140 <start_input_ppm+0x3e0>
  4040ac:	50 10 10 00 
  4040b0:	28 00 00 00 	lw $3,0($16)
  4040b4:	00 00 03 10 
  4040b8:	43 00 00 00 	addiu $2,$0,3
  4040bc:	03 00 02 00 
  4040c0:	34 00 00 00 	sw $2,32($16)
  4040c4:	20 00 02 10 
  4040c8:	43 00 00 00 	addiu $2,$0,2
  4040cc:	02 00 02 00 
  4040d0:	34 00 00 00 	sw $2,36($16)
  4040d4:	24 00 02 10 
  4040d8:	43 00 00 00 	addiu $2,$0,1031
  4040dc:	07 04 02 00 
  4040e0:	34 00 00 00 	sw $2,20($3)
  4040e4:	14 00 02 03 
  4040e8:	28 00 00 00 	lw $2,0($16)
  4040ec:	00 00 02 10 
  4040f0:	34 00 00 00 	sw $21,24($2)
  4040f4:	18 00 15 02 
  4040f8:	28 00 00 00 	lw $2,0($16)
  4040fc:	00 00 02 10 
  404100:	34 00 00 00 	sw $20,28($2)
  404104:	1c 00 14 02 
  404108:	28 00 00 00 	lw $2,0($16)
  40410c:	00 00 02 10 
  404110:	28 00 00 00 	lw $2,4($2)
  404114:	04 00 02 02 
  404118:	42 00 00 00 	addu $4,$0,$16
  40411c:	00 04 10 00 
  404120:	43 00 00 00 	addiu $5,$0,1
  404124:	01 00 05 00 
  404128:	04 00 00 00 	jalr $31,$2
  40412c:	00 1f 00 02 
  404130:	a2 00 00 00 	lui $2,64
  404134:	40 00 02 00 
  404138:	43 00 00 00 	addiu $2,$2,13440
  40413c:	80 34 02 02 
  404140:	42 00 00 00 	addu $22,$0,$0
  404144:	00 16 00 00 
  404148:	34 00 00 00 	sw $2,4($17)
  40414c:	04 00 02 11 
  404150:	01 00 00 00 	j 404378 <start_input_ppm+0x618>
  404154:	de 10 10 00 
  404158:	28 00 00 00 	lw $3,0($16)
  40415c:	00 00 03 10 
  404160:	43 00 00 00 	addiu $2,$0,1
  404164:	01 00 02 00 
  404168:	34 00 00 00 	sw $2,32($16)
  40416c:	20 00 02 10 
  404170:	34 00 00 00 	sw $2,36($16)
  404174:	24 00 02 10 
  404178:	43 00 00 00 	addiu $2,$0,1028
  40417c:	04 04 02 00 
  404180:	34 00 00 00 	sw $2,20($3)
  404184:	14 00 02 03 
  404188:	28 00 00 00 	lw $2,0($16)
  40418c:	00 00 02 10 
  404190:	34 00 00 00 	sw $21,24($2)
  404194:	18 00 15 02 
  404198:	28 00 00 00 	lw $2,0($16)
  40419c:	00 00 02 10 
  4041a0:	34 00 00 00 	sw $20,28($2)
  4041a4:	1c 00 14 02 
  4041a8:	28 00 00 00 	lw $2,0($16)
  4041ac:	00 00 02 10 
  4041b0:	28 00 00 00 	lw $2,4($2)
  4041b4:	04 00 02 02 
  4041b8:	42 00 00 00 	addu $4,$0,$16
  4041bc:	00 04 10 00 
  4041c0:	43 00 00 00 	addiu $5,$0,1
  4041c4:	01 00 05 00 
  4041c8:	04 00 00 00 	jalr $31,$2
  4041cc:	00 1f 00 02 
  4041d0:	5e 00 00 00 	sltiu $2,$19,256
  4041d4:	00 01 02 13 
  4041d8:	06 00 00 00 	bne $2,$0,404200 <start_input_ppm+0x4a0>
  4041dc:	08 00 00 02 
  4041e0:	a2 00 00 00 	lui $2,64
  4041e4:	40 00 02 00 
  4041e8:	43 00 00 00 	addiu $2,$2,14816
  4041ec:	e0 39 02 02 
  4041f0:	34 00 00 00 	sw $2,4($17)
  4041f4:	04 00 02 11 
  4041f8:	01 00 00 00 	j 404378 <start_input_ppm+0x618>
  4041fc:	de 10 10 00 
  404200:	43 00 00 00 	addiu $2,$0,255
  404204:	ff 00 02 00 
  404208:	05 00 00 00 	beq $19,$2,4042f0 <start_input_ppm+0x590>
  40420c:	38 00 02 13 
  404210:	a2 00 00 00 	lui $2,64
  404214:	40 00 02 00 
  404218:	43 00 00 00 	addiu $2,$2,13808
  40421c:	f0 35 02 02 
  404220:	34 00 00 00 	sw $2,4($17)
  404224:	04 00 02 11 
  404228:	01 00 00 00 	j 404378 <start_input_ppm+0x618>
  40422c:	de 10 10 00 
  404230:	28 00 00 00 	lw $3,0($16)
  404234:	00 00 03 10 
  404238:	43 00 00 00 	addiu $2,$0,3
  40423c:	03 00 02 00 
  404240:	34 00 00 00 	sw $2,32($16)
  404244:	20 00 02 10 
  404248:	43 00 00 00 	addiu $2,$0,2
  40424c:	02 00 02 00 
  404250:	34 00 00 00 	sw $2,36($16)
  404254:	24 00 02 10 
  404258:	43 00 00 00 	addiu $2,$0,1030
  40425c:	06 04 02 00 
  404260:	34 00 00 00 	sw $2,20($3)
  404264:	14 00 02 03 
  404268:	28 00 00 00 	lw $2,0($16)
  40426c:	00 00 02 10 
  404270:	34 00 00 00 	sw $21,24($2)
  404274:	18 00 15 02 
  404278:	28 00 00 00 	lw $2,0($16)
  40427c:	00 00 02 10 
  404280:	34 00 00 00 	sw $20,28($2)
  404284:	1c 00 14 02 
  404288:	28 00 00 00 	lw $2,0($16)
  40428c:	00 00 02 10 
  404290:	28 00 00 00 	lw $2,4($2)
  404294:	04 00 02 02 
  404298:	42 00 00 00 	addu $4,$0,$16
  40429c:	00 04 10 00 
  4042a0:	43 00 00 00 	addiu $5,$0,1
  4042a4:	01 00 05 00 
  4042a8:	04 00 00 00 	jalr $31,$2
  4042ac:	00 1f 00 02 
  4042b0:	5e 00 00 00 	sltiu $2,$19,256
  4042b4:	00 01 02 13 
  4042b8:	06 00 00 00 	bne $2,$0,4042e0 <start_input_ppm+0x580>
  4042bc:	08 00 00 02 
  4042c0:	a2 00 00 00 	lui $2,64
  4042c4:	40 00 02 00 
  4042c8:	43 00 00 00 	addiu $2,$2,15184
  4042cc:	50 3b 02 02 
  4042d0:	34 00 00 00 	sw $2,4($17)
  4042d4:	04 00 02 11 
  4042d8:	01 00 00 00 	j 404378 <start_input_ppm+0x618>
  4042dc:	de 10 10 00 
  4042e0:	43 00 00 00 	addiu $2,$0,255
  4042e4:	ff 00 02 00 
  4042e8:	06 00 00 00 	bne $19,$2,404320 <start_input_ppm+0x5c0>
  4042ec:	0c 00 02 13 
  4042f0:	a2 00 00 00 	lui $2,64
  4042f4:	40 00 02 00 
  4042f8:	43 00 00 00 	addiu $2,$2,14576
  4042fc:	f0 38 02 02 
  404300:	34 00 00 00 	sw $2,4($17)
  404304:	04 00 02 11 
  404308:	43 00 00 00 	addiu $23,$0,1
  40430c:	01 00 17 00 
  404310:	42 00 00 00 	addu $30,$0,$0
  404314:	00 1e 00 00 
  404318:	01 00 00 00 	j 404378 <start_input_ppm+0x618>
  40431c:	de 10 10 00 
  404320:	a2 00 00 00 	lui $2,64
  404324:	40 00 02 00 
  404328:	43 00 00 00 	addiu $2,$2,14144
  40432c:	40 37 02 02 
  404330:	34 00 00 00 	sw $2,4($17)
  404334:	04 00 02 11 
  404338:	01 00 00 00 	j 404378 <start_input_ppm+0x618>
  40433c:	de 10 10 00 
  404340:	28 00 00 00 	lw $3,0($16)
  404344:	00 00 03 10 
  404348:	43 00 00 00 	addiu $2,$0,1027
  40434c:	03 04 02 00 
  404350:	34 00 00 00 	sw $2,20($3)
  404354:	14 00 02 03 
  404358:	28 00 00 00 	lw $2,0($16)
  40435c:	00 00 02 10 
  404360:	28 00 00 00 	lw $2,0($2)
  404364:	00 00 02 02 
  404368:	42 00 00 00 	addu $4,$0,$16
  40436c:	00 04 10 00 
  404370:	04 00 00 00 	jalr $31,$2
  404374:	00 1f 00 02 
  404378:	28 00 00 00 	lw $3,32($16)
  40437c:	20 00 03 10 
  404380:	5e 00 00 00 	sltiu $2,$19,256
  404384:	00 01 02 13 
  404388:	34 00 00 00 	sw $0,-31400($28)
  40438c:	58 85 00 1c 
  404390:	06 00 00 00 	bne $2,$0,4043b8 <start_input_ppm+0x658>
  404394:	08 00 00 02 
  404398:	55 00 00 00 	sll $2,$20,0x1
  40439c:	01 02 14 00 
  4043a0:	46 00 00 00 	mult $21,$2
  4043a4:	00 00 02 15 
  4043a8:	4c 00 00 00 	mflo $2
  4043ac:	00 02 00 00 
  4043b0:	01 00 00 00 	j 4043c8 <start_input_ppm+0x668>
  4043b4:	f2 10 10 00 
  4043b8:	46 00 00 00 	mult $21,$20
  4043bc:	00 00 14 15 
  4043c0:	4c 00 00 00 	mflo $2
  4043c4:	00 02 00 00 
  4043c8:	46 00 00 00 	mult $2,$3
  4043cc:	00 00 03 02 
  4043d0:	4c 00 00 00 	mflo $2
  4043d4:	00 02 00 00 
  4043d8:	34 00 00 00 	sw $2,-31408($28)
  4043dc:	50 85 02 1c 
  4043e0:	a2 00 00 00 	lui $2,32768
  4043e4:	00 80 02 00 
  4043e8:	51 00 00 00 	ori $2,$2,4096
  4043ec:	00 10 02 02 
  4043f0:	34 00 00 00 	sw $2,-31404($28)
  4043f4:	54 85 02 1c 
  4043f8:	28 00 00 00 	lw $2,-32768($28)
  4043fc:	00 80 02 1c 
  404400:	06 00 00 00 	bne $2,$0,404480 <start_input_ppm+0x720>
  404404:	1e 00 00 02 
  404408:	28 00 00 00 	lw $6,-31408($28)
  40440c:	50 85 06 1c 
  404410:	28 00 00 00 	lw $7,12($17)
  404414:	0c 00 07 11 
  404418:	a2 00 00 00 	lui $4,32768
  40441c:	00 80 04 00 
  404420:	51 00 00 00 	ori $4,$4,4096
  404424:	00 10 04 04 
  404428:	43 00 00 00 	addiu $5,$0,1
  40442c:	01 00 05 00 
  404430:	02 00 00 00 	jal 425050 <fread>
  404434:	14 94 10 00 
  404438:	28 00 00 00 	lw $3,-31408($28)
  40443c:	50 85 03 1c 
  404440:	05 00 00 00 	beq $2,$3,404480 <start_input_ppm+0x720>
  404444:	0e 00 03 02 
  404448:	28 00 00 00 	lw $3,0($16)
  40444c:	00 00 03 10 
  404450:	43 00 00 00 	addiu $2,$0,42
  404454:	2a 00 02 00 
  404458:	34 00 00 00 	sw $2,20($3)
  40445c:	14 00 02 03 
  404460:	28 00 00 00 	lw $2,0($16)
  404464:	00 00 02 10 
  404468:	28 00 00 00 	lw $2,0($2)
  40446c:	00 00 02 02 
  404470:	42 00 00 00 	addu $4,$0,$16
  404474:	00 04 10 00 
  404478:	04 00 00 00 	jalr $31,$2
  40447c:	00 1f 00 02 
  404480:	05 00 00 00 	beq $22,$0,404500 <start_input_ppm+0x7a0>
  404484:	1e 00 00 16 
  404488:	28 00 00 00 	lw $2,32($16)
  40448c:	20 00 02 10 
  404490:	46 00 00 00 	mult $21,$2
  404494:	00 00 02 15 
  404498:	4c 00 00 00 	mflo $3
  40449c:	00 03 00 00 
  4044a0:	5e 00 00 00 	sltiu $2,$19,256
  4044a4:	00 01 02 13 
  4044a8:	34 00 00 00 	sw $3,32($17)
  4044ac:	20 00 03 11 
  4044b0:	06 00 00 00 	bne $2,$0,4044c8 <start_input_ppm+0x768>
  4044b4:	04 00 00 02 
  4044b8:	55 00 00 00 	sll $2,$3,0x1
  4044bc:	01 02 03 00 
  4044c0:	34 00 00 00 	sw $2,32($17)
  4044c4:	20 00 02 11 
  4044c8:	28 00 00 00 	lw $2,4($16)
  4044cc:	04 00 02 10 
  4044d0:	28 00 00 00 	lw $6,32($17)
  4044d4:	20 00 06 11 
  4044d8:	28 00 00 00 	lw $2,0($2)
  4044dc:	00 00 02 02 
  4044e0:	42 00 00 00 	addu $4,$0,$16
  4044e4:	00 04 10 00 
  4044e8:	43 00 00 00 	addiu $5,$0,1
  4044ec:	01 00 05 00 
  4044f0:	04 00 00 00 	jalr $31,$2
  4044f4:	00 1f 00 02 
  4044f8:	34 00 00 00 	sw $2,24($17)
  4044fc:	18 00 02 11 
  404500:	05 00 00 00 	beq $23,$0,404528 <start_input_ppm+0x7c8>
  404504:	08 00 00 17 
  404508:	28 00 00 00 	lw $2,24($17)
  40450c:	18 00 02 11 
  404510:	34 00 00 00 	sw $2,28($17)
  404514:	1c 00 02 11 
  404518:	43 00 00 00 	addiu $2,$17,28
  40451c:	1c 00 02 11 
  404520:	01 00 00 00 	j 404570 <start_input_ppm+0x810>
  404524:	5c 11 10 00 
  404528:	28 00 00 00 	lw $6,32($16)
  40452c:	20 00 06 10 
  404530:	46 00 00 00 	mult $21,$6
  404534:	00 00 06 15 
  404538:	4c 00 00 00 	mflo $6
  40453c:	00 06 00 00 
  404540:	28 00 00 00 	lw $2,4($16)
  404544:	04 00 02 10 
  404548:	42 00 00 00 	addu $4,$0,$16
  40454c:	00 04 10 00 
  404550:	28 00 00 00 	lw $2,8($2)
  404554:	08 00 02 02 
  404558:	43 00 00 00 	addiu $5,$0,1
  40455c:	01 00 05 00 
  404560:	43 00 00 00 	addiu $7,$0,1
  404564:	01 00 07 00 
  404568:	04 00 00 00 	jalr $31,$2
  40456c:	00 1f 00 02 
  404570:	34 00 00 00 	sw $2,16($17)
  404574:	10 00 02 11 
  404578:	43 00 00 00 	addiu $2,$0,1
  40457c:	01 00 02 00 
  404580:	34 00 00 00 	sw $2,20($17)
  404584:	14 00 02 11 
  404588:	05 00 00 00 	beq $30,$0,404648 <start_input_ppm+0x8e8>
  40458c:	2e 00 00 1e 
  404590:	28 00 00 00 	lw $2,4($16)
  404594:	04 00 02 10 
  404598:	42 00 00 00 	addu $4,$0,$16
  40459c:	00 04 10 00 
  4045a0:	28 00 00 00 	lw $2,0($2)
  4045a4:	00 00 02 02 
  4045a8:	43 00 00 00 	addiu $5,$0,1
  4045ac:	01 00 05 00 
  4045b0:	43 00 00 00 	addiu $6,$19,1
  4045b4:	01 00 06 13 
  4045b8:	04 00 00 00 	jalr $31,$2
  4045bc:	00 1f 00 02 
  4045c0:	57 00 00 00 	srl $6,$19,0x1
  4045c4:	01 06 13 00 
  4045c8:	42 00 00 00 	addu $5,$0,$0
  4045cc:	00 05 00 00 
  4045d0:	34 00 00 00 	sw $2,36($17)
  4045d4:	24 00 02 11 
  4045d8:	09 00 00 00 	bltz $19,404648 <start_input_ppm+0x8e8>
  4045dc:	1a 00 00 13 
  4045e0:	55 00 00 00 	sll $2,$5,0x8
  4045e4:	08 02 05 00 
  4045e8:	45 00 00 00 	subu $2,$2,$5
  4045ec:	00 02 05 02 
  4045f0:	42 00 00 00 	addu $2,$2,$6
  4045f4:	00 02 06 02 
  4045f8:	49 00 00 00 	divu $0,$2,$19
  4045fc:	00 00 13 02 
  404600:	06 00 00 00 	bne $19,$0,404610 <start_input_ppm+0x8b0>
  404604:	02 00 00 13 
  404608:	a1 00 00 00 	break 
  40460c:	07 00 00 00 
  404610:	4c 00 00 00 	mflo $2
  404614:	00 02 00 00 
  404618:	28 00 00 00 	lw $3,36($17)
  40461c:	24 00 03 11 
  404620:	42 00 00 00 	addu $3,$3,$5
  404624:	00 03 05 03 
  404628:	43 00 00 00 	addiu $5,$5,1
  40462c:	01 00 05 05 
  404630:	30 00 00 00 	sb $2,0($3)
  404634:	00 00 02 03 
  404638:	5b 00 00 00 	slt $2,$19,$5
  40463c:	00 02 05 13 
  404640:	05 00 00 00 	beq $2,$0,4045e0 <start_input_ppm+0x880>
  404644:	e6 ff 00 02 
  404648:	28 00 00 00 	lw $31,52($29)
  40464c:	34 00 1f 1d 
  404650:	28 00 00 00 	lw $30,48($29)
  404654:	30 00 1e 1d 
  404658:	28 00 00 00 	lw $23,44($29)
  40465c:	2c 00 17 1d 
  404660:	28 00 00 00 	lw $22,40($29)
  404664:	28 00 16 1d 
  404668:	28 00 00 00 	lw $21,36($29)
  40466c:	24 00 15 1d 
  404670:	28 00 00 00 	lw $20,32($29)
  404674:	20 00 14 1d 
  404678:	28 00 00 00 	lw $19,28($29)
  40467c:	1c 00 13 1d 
  404680:	28 00 00 00 	lw $18,24($29)
  404684:	18 00 12 1d 
  404688:	28 00 00 00 	lw $17,20($29)
  40468c:	14 00 11 1d 
  404690:	28 00 00 00 	lw $16,16($29)
  404694:	10 00 10 1d 
  404698:	43 00 00 00 	addiu $29,$29,56
  40469c:	38 00 1d 1d 
  4046a0:	03 00 00 00 	jr $31
  4046a4:	00 00 00 1f 

004046a8 <finish_input_ppm>:
  4046a8:	03 00 00 00 	jr $31
  4046ac:	00 00 00 1f 

004046b0 <jinit_read_ppm>:
  4046b0:	43 00 00 00 	addiu $29,$29,-24
  4046b4:	e8 ff 1d 1d 
  4046b8:	34 00 00 00 	sw $31,16($29)
  4046bc:	10 00 1f 1d 
  4046c0:	28 00 00 00 	lw $2,4($4)
  4046c4:	04 00 02 04 
  4046c8:	28 00 00 00 	lw $2,0($2)
  4046cc:	00 00 02 02 
  4046d0:	43 00 00 00 	addiu $5,$0,1
  4046d4:	01 00 05 00 
  4046d8:	43 00 00 00 	addiu $6,$0,40
  4046dc:	28 00 06 00 
  4046e0:	04 00 00 00 	jalr $31,$2
  4046e4:	00 1f 00 02 
  4046e8:	a2 00 00 00 	lui $3,64
  4046ec:	40 00 03 00 
  4046f0:	43 00 00 00 	addiu $3,$3,15712
  4046f4:	60 3d 03 03 
  4046f8:	34 00 00 00 	sw $3,0($2)
  4046fc:	00 00 03 02 
  404700:	a2 00 00 00 	lui $3,64
  404704:	40 00 03 00 
  404708:	43 00 00 00 	addiu $3,$3,18088
  40470c:	a8 46 03 03 
  404710:	34 00 00 00 	sw $3,8($2)
  404714:	08 00 03 02 
  404718:	28 00 00 00 	lw $31,16($29)
  40471c:	10 00 1f 1d 
  404720:	43 00 00 00 	addiu $29,$29,24
  404724:	18 00 1d 1d 
  404728:	03 00 00 00 	jr $31
  40472c:	00 00 00 1f 

00404730 <ReadByte>:
  404730:	43 00 00 00 	addiu $29,$29,-32
  404734:	e0 ff 1d 1d 
  404738:	34 00 00 00 	sw $17,20($29)
  40473c:	14 00 11 1d 
  404740:	42 00 00 00 	addu $17,$0,$4
  404744:	00 11 04 00 
  404748:	34 00 00 00 	sw $31,24($29)
  40474c:	18 00 1f 1d 
  404750:	34 00 00 00 	sw $16,16($29)
  404754:	10 00 10 1d 
  404758:	28 00 00 00 	lw $4,12($17)
  40475c:	0c 00 04 11 
  404760:	28 00 00 00 	lw $3,4($4)
  404764:	04 00 03 04 
  404768:	28 00 00 00 	lw $2,8($4)
  40476c:	08 00 02 04 
  404770:	5d 00 00 00 	sltu $2,$3,$2
  404774:	00 02 02 03 
  404778:	05 00 00 00 	beq $2,$0,4047a0 <ReadByte+0x70>
  40477c:	08 00 00 02 
  404780:	43 00 00 00 	addiu $2,$3,1
  404784:	01 00 02 03 
  404788:	34 00 00 00 	sw $2,4($4)
  40478c:	04 00 02 04 
  404790:	22 00 00 00 	lbu $16,0($3)
  404794:	00 00 10 03 
  404798:	01 00 00 00 	j 4047b0 <ReadByte+0x80>
  40479c:	ec 11 10 00 
  4047a0:	02 00 00 00 	jal 422de8 <__fillbf>
  4047a4:	7a 8b 10 00 
  4047a8:	42 00 00 00 	addu $16,$0,$2
  4047ac:	00 10 02 00 
  4047b0:	43 00 00 00 	addiu $2,$0,-1
  4047b4:	ff ff 02 00 
  4047b8:	06 00 00 00 	bne $16,$2,404800 <ReadByte+0xd0>
  4047bc:	10 00 02 10 
  4047c0:	28 00 00 00 	lw $2,24($17)
  4047c4:	18 00 02 11 
  4047c8:	28 00 00 00 	lw $3,0($2)
  4047cc:	00 00 03 02 
  4047d0:	43 00 00 00 	addiu $2,$0,42
  4047d4:	2a 00 02 00 
  4047d8:	34 00 00 00 	sw $2,20($3)
  4047dc:	14 00 02 03 
  4047e0:	28 00 00 00 	lw $4,24($17)
  4047e4:	18 00 04 11 
  4047e8:	28 00 00 00 	lw $2,0($4)
  4047ec:	00 00 02 04 
  4047f0:	28 00 00 00 	lw $2,0($2)
  4047f4:	00 00 02 02 
  4047f8:	04 00 00 00 	jalr $31,$2
  4047fc:	00 1f 00 02 
  404800:	42 00 00 00 	addu $2,$0,$16
  404804:	00 02 10 00 
  404808:	28 00 00 00 	lw $31,24($29)
  40480c:	18 00 1f 1d 
  404810:	28 00 00 00 	lw $17,20($29)
  404814:	14 00 11 1d 
  404818:	28 00 00 00 	lw $16,16($29)
  40481c:	10 00 10 1d 
  404820:	43 00 00 00 	addiu $29,$29,32
  404824:	20 00 1d 1d 
  404828:	03 00 00 00 	jr $31
  40482c:	00 00 00 1f 

00404830 <GetDataBlock>:
  404830:	43 00 00 00 	addiu $29,$29,-32
  404834:	e0 ff 1d 1d 
  404838:	34 00 00 00 	sw $16,16($29)
  40483c:	10 00 10 1d 
  404840:	42 00 00 00 	addu $16,$0,$4
  404844:	00 10 04 00 
  404848:	34 00 00 00 	sw $18,24($29)
  40484c:	18 00 12 1d 
  404850:	42 00 00 00 	addu $18,$0,$5
  404854:	00 12 05 00 
  404858:	34 00 00 00 	sw $31,28($29)
  40485c:	1c 00 1f 1d 
  404860:	34 00 00 00 	sw $17,20($29)
  404864:	14 00 11 1d 
  404868:	02 00 00 00 	jal 404730 <ReadByte>
  40486c:	cc 11 10 00 
  404870:	42 00 00 00 	addu $17,$0,$2
  404874:	00 11 02 00 
  404878:	07 00 00 00 	blez $17,4048f0 <GetDataBlock+0xc0>
  40487c:	1c 00 00 11 
  404880:	42 00 00 00 	addu $4,$0,$18
  404884:	00 04 12 00 
  404888:	28 00 00 00 	lw $7,12($16)
  40488c:	0c 00 07 10 
  404890:	43 00 00 00 	addiu $5,$0,1
  404894:	01 00 05 00 
  404898:	42 00 00 00 	addu $6,$0,$17
  40489c:	00 06 11 00 
  4048a0:	02 00 00 00 	jal 425050 <fread>
  4048a4:	14 94 10 00 
  4048a8:	05 00 00 00 	beq $2,$17,4048f0 <GetDataBlock+0xc0>
  4048ac:	10 00 11 02 
  4048b0:	28 00 00 00 	lw $2,24($16)
  4048b4:	18 00 02 10 
  4048b8:	28 00 00 00 	lw $3,0($2)
  4048bc:	00 00 03 02 
  4048c0:	43 00 00 00 	addiu $2,$0,42
  4048c4:	2a 00 02 00 
  4048c8:	34 00 00 00 	sw $2,20($3)
  4048cc:	14 00 02 03 
  4048d0:	28 00 00 00 	lw $4,24($16)
  4048d4:	18 00 04 10 
  4048d8:	28 00 00 00 	lw $2,0($4)
  4048dc:	00 00 02 04 
  4048e0:	28 00 00 00 	lw $2,0($2)
  4048e4:	00 00 02 02 
  4048e8:	04 00 00 00 	jalr $31,$2
  4048ec:	00 1f 00 02 
  4048f0:	42 00 00 00 	addu $2,$0,$17
  4048f4:	00 02 11 00 
  4048f8:	28 00 00 00 	lw $31,28($29)
  4048fc:	1c 00 1f 1d 
  404900:	28 00 00 00 	lw $18,24($29)
  404904:	18 00 12 1d 
  404908:	28 00 00 00 	lw $17,20($29)
  40490c:	14 00 11 1d 
  404910:	28 00 00 00 	lw $16,16($29)
  404914:	10 00 10 1d 
  404918:	43 00 00 00 	addiu $29,$29,32
  40491c:	20 00 1d 1d 
  404920:	03 00 00 00 	jr $31
  404924:	00 00 00 1f 

00404928 <SkipDataBlocks>:
  404928:	43 00 00 00 	addiu $29,$29,-280
  40492c:	e8 fe 1d 1d 
  404930:	34 00 00 00 	sw $16,272($29)
  404934:	10 01 10 1d 
  404938:	42 00 00 00 	addu $16,$0,$4
  40493c:	00 10 04 00 
  404940:	34 00 00 00 	sw $31,276($29)
  404944:	14 01 1f 1d 
  404948:	42 00 00 00 	addu $4,$0,$16
  40494c:	00 04 10 00 
  404950:	43 00 00 00 	addiu $5,$29,16
  404954:	10 00 05 1d 
  404958:	02 00 00 00 	jal 404830 <GetDataBlock>
  40495c:	0c 12 10 00 
  404960:	08 00 00 00 	bgtz $2,404948 <SkipDataBlocks+0x20>
  404964:	f8 ff 00 02 
  404968:	28 00 00 00 	lw $31,276($29)
  40496c:	14 01 1f 1d 
  404970:	28 00 00 00 	lw $16,272($29)
  404974:	10 01 10 1d 
  404978:	43 00 00 00 	addiu $29,$29,280
  40497c:	18 01 1d 1d 
  404980:	03 00 00 00 	jr $31
  404984:	00 00 00 1f 

00404988 <ReInitLZW>:
  404988:	28 00 00 00 	lw $2,308($4)
  40498c:	34 01 02 04 
  404990:	43 00 00 00 	addiu $2,$2,1
  404994:	01 00 02 02 
  404998:	34 00 00 00 	sw $2,320($4)
  40499c:	40 01 02 04 
  4049a0:	28 00 00 00 	lw $2,312($4)
  4049a4:	38 01 02 04 
  4049a8:	55 00 00 00 	sll $2,$2,0x1
  4049ac:	01 02 02 00 
  4049b0:	34 00 00 00 	sw $2,324($4)
  4049b4:	44 01 02 04 
  4049b8:	28 00 00 00 	lw $2,312($4)
  4049bc:	38 01 02 04 
  4049c0:	43 00 00 00 	addiu $2,$2,2
  4049c4:	02 00 02 02 
  4049c8:	34 00 00 00 	sw $2,328($4)
  4049cc:	48 01 02 04 
  4049d0:	28 00 00 00 	lw $2,352($4)
  4049d4:	60 01 02 04 
  4049d8:	34 00 00 00 	sw $2,356($4)
  4049dc:	64 01 02 04 
  4049e0:	03 00 00 00 	jr $31
  4049e4:	00 00 00 1f 

004049e8 <InitLZWCode>:
  4049e8:	43 00 00 00 	addiu $29,$29,-24
  4049ec:	e8 ff 1d 1d 
  4049f0:	43 00 00 00 	addiu $2,$0,2
  4049f4:	02 00 02 00 
  4049f8:	34 00 00 00 	sw $31,16($29)
  4049fc:	10 00 1f 1d 
  404a00:	34 00 00 00 	sw $2,292($4)
  404a04:	24 01 02 04 
  404a08:	28 00 00 00 	lw $2,308($4)
  404a0c:	34 01 02 04 
  404a10:	43 00 00 00 	addiu $3,$0,1
  404a14:	01 00 03 00 
  404a18:	34 00 00 00 	sw $0,296($4)
  404a1c:	28 01 00 04 
  404a20:	34 00 00 00 	sw $0,300($4)
  404a24:	2c 01 00 04 
  404a28:	34 00 00 00 	sw $0,304($4)
  404a2c:	30 01 00 04 
  404a30:	34 00 00 00 	sw $3,332($4)
  404a34:	4c 01 03 04 
  404a38:	56 00 00 00 	sllv $2,$3,$2
  404a3c:	00 02 03 02 
  404a40:	34 00 00 00 	sw $2,312($4)
  404a44:	38 01 02 04 
  404a48:	43 00 00 00 	addiu $2,$2,1
  404a4c:	01 00 02 02 
  404a50:	34 00 00 00 	sw $2,316($4)
  404a54:	3c 01 02 04 
  404a58:	02 00 00 00 	jal 404988 <ReInitLZW>
  404a5c:	62 12 10 00 
  404a60:	28 00 00 00 	lw $31,16($29)
  404a64:	10 00 1f 1d 
  404a68:	43 00 00 00 	addiu $29,$29,24
  404a6c:	18 00 1d 1d 
  404a70:	03 00 00 00 	jr $31
  404a74:	00 00 00 1f 

00404a78 <GetCode>:
  404a78:	43 00 00 00 	addiu $29,$29,-32
  404a7c:	e0 ff 1d 1d 
  404a80:	34 00 00 00 	sw $16,16($29)
  404a84:	10 00 10 1d 
  404a88:	42 00 00 00 	addu $16,$0,$4
  404a8c:	00 10 04 00 
  404a90:	34 00 00 00 	sw $31,24($29)
  404a94:	18 00 1f 1d 
  404a98:	34 00 00 00 	sw $17,20($29)
  404a9c:	14 00 11 1d 
  404aa0:	28 00 00 00 	lw $2,300($16)
  404aa4:	2c 01 02 10 
  404aa8:	28 00 00 00 	lw $3,320($16)
  404aac:	40 01 03 10 
  404ab0:	42 00 00 00 	addu $2,$2,$3
  404ab4:	00 02 03 02 
  404ab8:	28 00 00 00 	lw $3,296($16)
  404abc:	28 01 03 10 
  404ac0:	5b 00 00 00 	slt $3,$3,$2
  404ac4:	00 03 02 03 
  404ac8:	05 00 00 00 	beq $3,$0,404c20 <GetCode+0x1a8>
  404acc:	54 00 00 03 
  404ad0:	43 00 00 00 	addiu $17,$0,1024
  404ad4:	00 04 11 00 
  404ad8:	28 00 00 00 	lw $2,304($16)
  404adc:	30 01 02 10 
  404ae0:	06 00 00 00 	bne $2,$0,404b60 <GetCode+0xe8>
  404ae4:	1e 00 00 02 
  404ae8:	28 00 00 00 	lw $2,292($16)
  404aec:	24 01 02 10 
  404af0:	42 00 00 00 	addu $2,$16,$2
  404af4:	00 02 02 10 
  404af8:	22 00 00 00 	lbu $2,30($2)
  404afc:	1e 00 02 02 
  404b00:	30 00 00 00 	sb $2,32($16)
  404b04:	20 00 02 10 
  404b08:	28 00 00 00 	lw $2,292($16)
  404b0c:	24 01 02 10 
  404b10:	42 00 00 00 	addu $2,$16,$2
  404b14:	00 02 02 10 
  404b18:	22 00 00 00 	lbu $2,31($2)
  404b1c:	1f 00 02 02 
  404b20:	42 00 00 00 	addu $4,$0,$16
  404b24:	00 04 10 00 
  404b28:	43 00 00 00 	addiu $5,$16,34
  404b2c:	22 00 05 10 
  404b30:	30 00 00 00 	sb $2,33($16)
  404b34:	21 00 02 10 
  404b38:	02 00 00 00 	jal 404830 <GetDataBlock>
  404b3c:	0c 12 10 00 
  404b40:	42 00 00 00 	addu $4,$0,$2
  404b44:	00 04 02 00 
  404b48:	06 00 00 00 	bne $4,$0,404bb0 <GetCode+0x138>
  404b4c:	18 00 00 04 
  404b50:	43 00 00 00 	addiu $2,$0,1
  404b54:	01 00 02 00 
  404b58:	34 00 00 00 	sw $2,304($16)
  404b5c:	30 01 02 10 
  404b60:	28 00 00 00 	lw $2,24($16)
  404b64:	18 00 02 10 
  404b68:	28 00 00 00 	lw $2,0($2)
  404b6c:	00 00 02 02 
  404b70:	34 00 00 00 	sw $17,20($2)
  404b74:	14 00 11 02 
  404b78:	28 00 00 00 	lw $4,24($16)
  404b7c:	18 00 04 10 
  404b80:	28 00 00 00 	lw $2,0($4)
  404b84:	00 00 02 04 
  404b88:	28 00 00 00 	lw $2,4($2)
  404b8c:	04 00 02 02 
  404b90:	43 00 00 00 	addiu $5,$0,-1
  404b94:	ff ff 05 00 
  404b98:	04 00 00 00 	jalr $31,$2
  404b9c:	00 1f 00 02 
  404ba0:	28 00 00 00 	lw $2,316($16)
  404ba4:	3c 01 02 10 
  404ba8:	01 00 00 00 	j 404cb8 <GetCode+0x240>
  404bac:	2e 13 10 00 
  404bb0:	28 00 00 00 	lw $2,300($16)
  404bb4:	2c 01 02 10 
  404bb8:	28 00 00 00 	lw $3,296($16)
  404bbc:	28 01 03 10 
  404bc0:	45 00 00 00 	subu $2,$2,$3
  404bc4:	00 02 03 02 
  404bc8:	43 00 00 00 	addiu $2,$2,16
  404bcc:	10 00 02 02 
  404bd0:	34 00 00 00 	sw $2,300($16)
  404bd4:	2c 01 02 10 
  404bd8:	43 00 00 00 	addiu $2,$4,2
  404bdc:	02 00 02 04 
  404be0:	28 00 00 00 	lw $3,300($16)
  404be4:	2c 01 03 10 
  404be8:	28 00 00 00 	lw $4,320($16)
  404bec:	40 01 04 10 
  404bf0:	34 00 00 00 	sw $2,292($16)
  404bf4:	24 01 02 10 
  404bf8:	55 00 00 00 	sll $2,$2,0x3
  404bfc:	03 02 02 00 
  404c00:	34 00 00 00 	sw $2,296($16)
  404c04:	28 01 02 10 
  404c08:	42 00 00 00 	addu $3,$3,$4
  404c0c:	00 03 04 03 
  404c10:	5b 00 00 00 	slt $2,$2,$3
  404c14:	00 02 03 02 
  404c18:	06 00 00 00 	bne $2,$0,404ad8 <GetCode+0x60>
  404c1c:	ae ff 00 02 
  404c20:	28 00 00 00 	lw $4,300($16)
  404c24:	2c 01 04 10 
  404c28:	59 00 00 00 	sra $3,$4,0x3
  404c2c:	03 03 04 00 
  404c30:	42 00 00 00 	addu $3,$16,$3
  404c34:	00 03 03 10 
  404c38:	22 00 00 00 	lbu $5,34($3)
  404c3c:	22 00 05 03 
  404c40:	22 00 00 00 	lbu $2,33($3)
  404c44:	21 00 02 03 
  404c48:	55 00 00 00 	sll $5,$5,0x8
  404c4c:	08 05 05 00 
  404c50:	50 00 00 00 	or $5,$5,$2
  404c54:	00 05 02 05 
  404c58:	22 00 00 00 	lbu $2,32($3)
  404c5c:	20 00 02 03 
  404c60:	55 00 00 00 	sll $5,$5,0x8
  404c64:	08 05 05 00 
  404c68:	50 00 00 00 	or $5,$5,$2
  404c6c:	00 05 02 05 
  404c70:	4f 00 00 00 	andi $2,$4,7
  404c74:	07 00 02 04 
  404c78:	28 00 00 00 	lw $3,320($16)
  404c7c:	40 01 03 10 
  404c80:	5a 00 00 00 	srav $5,$5,$2
  404c84:	00 05 05 02 
  404c88:	43 00 00 00 	addiu $2,$0,1
  404c8c:	01 00 02 00 
  404c90:	56 00 00 00 	sllv $2,$2,$3
  404c94:	00 02 02 03 
  404c98:	43 00 00 00 	addiu $2,$2,-1
  404c9c:	ff ff 02 02 
  404ca0:	42 00 00 00 	addu $4,$4,$3
  404ca4:	00 04 03 04 
  404ca8:	4e 00 00 00 	and $2,$5,$2
  404cac:	00 02 02 05 
  404cb0:	34 00 00 00 	sw $4,300($16)
  404cb4:	2c 01 04 10 
  404cb8:	28 00 00 00 	lw $31,24($29)
  404cbc:	18 00 1f 1d 
  404cc0:	28 00 00 00 	lw $17,20($29)
  404cc4:	14 00 11 1d 
  404cc8:	28 00 00 00 	lw $16,16($29)
  404ccc:	10 00 10 1d 
  404cd0:	43 00 00 00 	addiu $29,$29,32
  404cd4:	20 00 1d 1d 
  404cd8:	03 00 00 00 	jr $31
  404cdc:	00 00 00 1f 

00404ce0 <LZWReadByte>:
  404ce0:	43 00 00 00 	addiu $29,$29,-24
  404ce4:	e8 ff 1d 1d 
  404ce8:	34 00 00 00 	sw $16,16($29)
  404cec:	10 00 10 1d 
  404cf0:	42 00 00 00 	addu $16,$0,$4
  404cf4:	00 10 04 00 
  404cf8:	34 00 00 00 	sw $31,20($29)
  404cfc:	14 00 1f 1d 
  404d00:	28 00 00 00 	lw $2,332($16)
  404d04:	4c 01 02 10 
  404d08:	05 00 00 00 	beq $2,$0,404d28 <LZWReadByte+0x48>
  404d0c:	06 00 00 02 
  404d10:	28 00 00 00 	lw $4,312($16)
  404d14:	38 01 04 10 
  404d18:	34 00 00 00 	sw $0,332($16)
  404d1c:	4c 01 00 10 
  404d20:	01 00 00 00 	j 404d80 <LZWReadByte+0xa0>
  404d24:	60 13 10 00 
  404d28:	28 00 00 00 	lw $3,356($16)
  404d2c:	64 01 03 10 
  404d30:	28 00 00 00 	lw $2,352($16)
  404d34:	60 01 02 10 
  404d38:	5d 00 00 00 	sltu $2,$2,$3
  404d3c:	00 02 03 02 
  404d40:	05 00 00 00 	beq $2,$0,404d68 <LZWReadByte+0x88>
  404d44:	08 00 00 02 
  404d48:	43 00 00 00 	addiu $2,$3,-1
  404d4c:	ff ff 02 03 
  404d50:	34 00 00 00 	sw $2,356($16)
  404d54:	64 01 02 10 
  404d58:	22 00 00 00 	lbu $2,-1($3)
  404d5c:	ff ff 02 03 
  404d60:	01 00 00 00 	j 4050f8 <LZWReadByte+0x418>
  404d64:	3e 14 10 00 
  404d68:	42 00 00 00 	addu $4,$0,$16
  404d6c:	00 04 10 00 
  404d70:	02 00 00 00 	jal 404a78 <GetCode>
  404d74:	9e 12 10 00 
  404d78:	42 00 00 00 	addu $4,$0,$2
  404d7c:	00 04 02 00 
  404d80:	28 00 00 00 	lw $2,312($16)
  404d84:	38 01 02 10 
  404d88:	06 00 00 00 	bne $4,$2,404e50 <LZWReadByte+0x170>
  404d8c:	30 00 02 04 
  404d90:	42 00 00 00 	addu $4,$0,$16
  404d94:	00 04 10 00 
  404d98:	02 00 00 00 	jal 404988 <ReInitLZW>
  404d9c:	62 12 10 00 
  404da0:	42 00 00 00 	addu $4,$0,$16
  404da4:	00 04 10 00 
  404da8:	02 00 00 00 	jal 404a78 <GetCode>
  404dac:	9e 12 10 00 
  404db0:	42 00 00 00 	addu $4,$0,$2
  404db4:	00 04 02 00 
  404db8:	28 00 00 00 	lw $2,312($16)
  404dbc:	38 01 02 10 
  404dc0:	05 00 00 00 	beq $4,$2,404da0 <LZWReadByte+0xc0>
  404dc4:	f6 ff 02 04 
  404dc8:	28 00 00 00 	lw $2,312($16)
  404dcc:	38 01 02 10 
  404dd0:	5b 00 00 00 	slt $2,$2,$4
  404dd4:	00 02 04 02 
  404dd8:	05 00 00 00 	beq $2,$0,404e30 <LZWReadByte+0x150>
  404ddc:	14 00 00 02 
  404de0:	28 00 00 00 	lw $2,24($16)
  404de4:	18 00 02 10 
  404de8:	28 00 00 00 	lw $3,0($2)
  404dec:	00 00 03 02 
  404df0:	43 00 00 00 	addiu $2,$0,1021
  404df4:	fd 03 02 00 
  404df8:	34 00 00 00 	sw $2,20($3)
  404dfc:	14 00 02 03 
  404e00:	28 00 00 00 	lw $4,24($16)
  404e04:	18 00 04 10 
  404e08:	28 00 00 00 	lw $2,0($4)
  404e0c:	00 00 02 04 
  404e10:	28 00 00 00 	lw $2,4($2)
  404e14:	04 00 02 02 
  404e18:	43 00 00 00 	addiu $5,$0,-1
  404e1c:	ff ff 05 00 
  404e20:	04 00 00 00 	jalr $31,$2
  404e24:	00 1f 00 02 
  404e28:	42 00 00 00 	addu $4,$0,$0
  404e2c:	00 04 00 00 
  404e30:	42 00 00 00 	addu $2,$0,$4
  404e34:	00 02 04 00 
  404e38:	34 00 00 00 	sw $4,336($16)
  404e3c:	50 01 04 10 
  404e40:	34 00 00 00 	sw $4,340($16)
  404e44:	54 01 04 10 
  404e48:	01 00 00 00 	j 4050f8 <LZWReadByte+0x418>
  404e4c:	3e 14 10 00 
  404e50:	28 00 00 00 	lw $2,316($16)
  404e54:	3c 01 02 10 
  404e58:	06 00 00 00 	bne $4,$2,404ee8 <LZWReadByte+0x208>
  404e5c:	22 00 02 04 
  404e60:	28 00 00 00 	lw $2,304($16)
  404e64:	30 01 02 10 
  404e68:	06 00 00 00 	bne $2,$0,404e90 <LZWReadByte+0x1b0>
  404e6c:	08 00 00 02 
  404e70:	42 00 00 00 	addu $4,$0,$16
  404e74:	00 04 10 00 
  404e78:	02 00 00 00 	jal 404928 <SkipDataBlocks>
  404e7c:	4a 12 10 00 
  404e80:	43 00 00 00 	addiu $2,$0,1
  404e84:	01 00 02 00 
  404e88:	34 00 00 00 	sw $2,304($16)
  404e8c:	30 01 02 10 
  404e90:	28 00 00 00 	lw $2,24($16)
  404e94:	18 00 02 10 
  404e98:	28 00 00 00 	lw $3,0($2)
  404e9c:	00 00 03 02 
  404ea0:	43 00 00 00 	addiu $2,$0,1023
  404ea4:	ff 03 02 00 
  404ea8:	34 00 00 00 	sw $2,20($3)
  404eac:	14 00 02 03 
  404eb0:	28 00 00 00 	lw $4,24($16)
  404eb4:	18 00 04 10 
  404eb8:	28 00 00 00 	lw $2,0($4)
  404ebc:	00 00 02 04 
  404ec0:	28 00 00 00 	lw $2,4($2)
  404ec4:	04 00 02 02 
  404ec8:	43 00 00 00 	addiu $5,$0,-1
  404ecc:	ff ff 05 00 
  404ed0:	04 00 00 00 	jalr $31,$2
  404ed4:	00 1f 00 02 
  404ed8:	42 00 00 00 	addu $2,$0,$0
  404edc:	00 02 00 00 
  404ee0:	01 00 00 00 	j 4050f8 <LZWReadByte+0x418>
  404ee4:	3e 14 10 00 
  404ee8:	28 00 00 00 	lw $3,328($16)
  404eec:	48 01 03 10 
  404ef0:	42 00 00 00 	addu $5,$0,$4
  404ef4:	00 05 04 00 
  404ef8:	5b 00 00 00 	slt $2,$5,$3
  404efc:	00 02 03 05 
  404f00:	06 00 00 00 	bne $2,$0,404ff8 <LZWReadByte+0x318>
  404f04:	3c 00 00 02 
  404f08:	5b 00 00 00 	slt $2,$3,$5
  404f0c:	00 02 05 03 
  404f10:	05 00 00 00 	beq $2,$0,404f68 <LZWReadByte+0x288>
  404f14:	14 00 00 02 
  404f18:	28 00 00 00 	lw $2,24($16)
  404f1c:	18 00 02 10 
  404f20:	28 00 00 00 	lw $3,0($2)
  404f24:	00 00 03 02 
  404f28:	43 00 00 00 	addiu $2,$0,1021
  404f2c:	fd 03 02 00 
  404f30:	34 00 00 00 	sw $2,20($3)
  404f34:	14 00 02 03 
  404f38:	28 00 00 00 	lw $4,24($16)
  404f3c:	18 00 04 10 
  404f40:	28 00 00 00 	lw $2,0($4)
  404f44:	00 00 02 04 
  404f48:	28 00 00 00 	lw $2,4($2)
  404f4c:	04 00 02 02 
  404f50:	43 00 00 00 	addiu $5,$0,-1
  404f54:	ff ff 05 00 
  404f58:	04 00 00 00 	jalr $31,$2
  404f5c:	00 1f 00 02 
  404f60:	42 00 00 00 	addu $5,$0,$0
  404f64:	00 05 00 00 
  404f68:	28 00 00 00 	lw $2,356($16)
  404f6c:	64 01 02 10 
  404f70:	43 00 00 00 	addiu $3,$2,1
  404f74:	01 00 03 02 
  404f78:	34 00 00 00 	sw $3,356($16)
  404f7c:	64 01 03 10 
  404f80:	22 00 00 00 	lbu $3,340($16)
  404f84:	54 01 03 10 
  404f88:	30 00 00 00 	sb $3,0($2)
  404f8c:	00 00 03 02 
  404f90:	28 00 00 00 	lw $4,336($16)
  404f94:	50 01 04 10 
  404f98:	01 00 00 00 	j 404ff8 <LZWReadByte+0x318>
  404f9c:	fe 13 10 00 
  404fa0:	28 00 00 00 	lw $3,356($16)
  404fa4:	64 01 03 10 
  404fa8:	43 00 00 00 	addiu $2,$3,1
  404fac:	01 00 02 03 
  404fb0:	34 00 00 00 	sw $2,356($16)
  404fb4:	64 01 02 10 
  404fb8:	28 00 00 00 	lw $2,348($16)
  404fbc:	5c 01 02 10 
  404fc0:	42 00 00 00 	addu $2,$2,$4
  404fc4:	00 02 04 02 
  404fc8:	22 00 00 00 	lbu $2,0($2)
  404fcc:	00 00 02 02 
  404fd0:	30 00 00 00 	sb $2,0($3)
  404fd4:	00 00 02 03 
  404fd8:	28 00 00 00 	lw $3,344($16)
  404fdc:	58 01 03 10 
  404fe0:	55 00 00 00 	sll $2,$4,0x1
  404fe4:	01 02 04 00 
  404fe8:	42 00 00 00 	addu $2,$2,$3
  404fec:	00 02 03 02 
  404ff0:	26 00 00 00 	lhu $4,0($2)
  404ff4:	00 00 04 02 
  404ff8:	28 00 00 00 	lw $2,312($16)
  404ffc:	38 01 02 10 
  405000:	5b 00 00 00 	slt $2,$4,$2
  405004:	00 02 02 04 
  405008:	05 00 00 00 	beq $2,$0,404fa0 <LZWReadByte+0x2c0>
  40500c:	e4 ff 00 02 
  405010:	34 00 00 00 	sw $4,340($16)
  405014:	54 01 04 10 
  405018:	28 00 00 00 	lw $4,328($16)
  40501c:	48 01 04 10 
  405020:	5c 00 00 00 	slti $2,$4,4096
  405024:	00 10 02 04 
  405028:	05 00 00 00 	beq $2,$0,4050e8 <LZWReadByte+0x408>
  40502c:	2e 00 00 02 
  405030:	28 00 00 00 	lw $3,344($16)
  405034:	58 01 03 10 
  405038:	55 00 00 00 	sll $2,$4,0x1
  40503c:	01 02 04 00 
  405040:	42 00 00 00 	addu $2,$2,$3
  405044:	00 02 03 02 
  405048:	26 00 00 00 	lhu $3,336($16)
  40504c:	50 01 03 10 
  405050:	32 00 00 00 	sh $3,0($2)
  405054:	00 00 03 02 
  405058:	28 00 00 00 	lw $2,348($16)
  40505c:	5c 01 02 10 
  405060:	22 00 00 00 	lbu $3,340($16)
  405064:	54 01 03 10 
  405068:	42 00 00 00 	addu $2,$2,$4
  40506c:	00 02 04 02 
  405070:	30 00 00 00 	sb $3,0($2)
  405074:	00 00 03 02 
  405078:	28 00 00 00 	lw $2,328($16)
  40507c:	48 01 02 10 
  405080:	28 00 00 00 	lw $3,324($16)
  405084:	44 01 03 10 
  405088:	43 00 00 00 	addiu $2,$2,1
  40508c:	01 00 02 02 
  405090:	34 00 00 00 	sw $2,328($16)
  405094:	48 01 02 10 
  405098:	5b 00 00 00 	slt $2,$2,$3
  40509c:	00 02 03 02 
  4050a0:	06 00 00 00 	bne $2,$0,4050e8 <LZWReadByte+0x408>
  4050a4:	10 00 00 02 
  4050a8:	28 00 00 00 	lw $3,320($16)
  4050ac:	40 01 03 10 
  4050b0:	5c 00 00 00 	slti $2,$3,12
  4050b4:	0c 00 02 03 
  4050b8:	05 00 00 00 	beq $2,$0,4050e8 <LZWReadByte+0x408>
  4050bc:	0a 00 00 02 
  4050c0:	43 00 00 00 	addiu $2,$3,1
  4050c4:	01 00 02 03 
  4050c8:	34 00 00 00 	sw $2,320($16)
  4050cc:	40 01 02 10 
  4050d0:	28 00 00 00 	lw $2,324($16)
  4050d4:	44 01 02 10 
  4050d8:	55 00 00 00 	sll $2,$2,0x1
  4050dc:	01 02 02 00 
  4050e0:	34 00 00 00 	sw $2,324($16)
  4050e4:	44 01 02 10 
  4050e8:	28 00 00 00 	lw $2,340($16)
  4050ec:	54 01 02 10 
  4050f0:	34 00 00 00 	sw $5,336($16)
  4050f4:	50 01 05 10 
  4050f8:	28 00 00 00 	lw $31,20($29)
  4050fc:	14 00 1f 1d 
  405100:	28 00 00 00 	lw $16,16($29)
  405104:	10 00 10 1d 
  405108:	43 00 00 00 	addiu $29,$29,24
  40510c:	18 00 1d 1d 
  405110:	03 00 00 00 	jr $31
  405114:	00 00 00 1f 

00405118 <ReadColorMap>:
  405118:	43 00 00 00 	addiu $29,$29,-48
  40511c:	d0 ff 1d 1d 
  405120:	34 00 00 00 	sw $18,32($29)
  405124:	20 00 12 1d 
  405128:	42 00 00 00 	addu $18,$0,$4
  40512c:	00 12 04 00 
  405130:	34 00 00 00 	sw $19,36($29)
  405134:	24 00 13 1d 
  405138:	42 00 00 00 	addu $19,$0,$5
  40513c:	00 13 05 00 
  405140:	34 00 00 00 	sw $17,28($29)
  405144:	1c 00 11 1d 
  405148:	42 00 00 00 	addu $17,$0,$6
  40514c:	00 11 06 00 
  405150:	34 00 00 00 	sw $16,24($29)
  405154:	18 00 10 1d 
  405158:	42 00 00 00 	addu $16,$0,$0
  40515c:	00 10 00 00 
  405160:	34 00 00 00 	sw $31,40($29)
  405164:	28 00 1f 1d 
  405168:	07 00 00 00 	blez $19,405200 <ReadColorMap+0xe8>
  40516c:	24 00 00 13 
  405170:	42 00 00 00 	addu $4,$0,$18
  405174:	00 04 12 00 
  405178:	02 00 00 00 	jal 404730 <ReadByte>
  40517c:	cc 11 10 00 
  405180:	28 00 00 00 	lw $3,0($17)
  405184:	00 00 03 11 
  405188:	42 00 00 00 	addu $4,$0,$18
  40518c:	00 04 12 00 
  405190:	42 00 00 00 	addu $3,$3,$16
  405194:	00 03 10 03 
  405198:	30 00 00 00 	sb $2,0($3)
  40519c:	00 00 02 03 
  4051a0:	02 00 00 00 	jal 404730 <ReadByte>
  4051a4:	cc 11 10 00 
  4051a8:	28 00 00 00 	lw $3,4($17)
  4051ac:	04 00 03 11 
  4051b0:	42 00 00 00 	addu $4,$0,$18
  4051b4:	00 04 12 00 
  4051b8:	42 00 00 00 	addu $3,$3,$16
  4051bc:	00 03 10 03 
  4051c0:	30 00 00 00 	sb $2,0($3)
  4051c4:	00 00 02 03 
  4051c8:	02 00 00 00 	jal 404730 <ReadByte>
  4051cc:	cc 11 10 00 
  4051d0:	28 00 00 00 	lw $3,8($17)
  4051d4:	08 00 03 11 
  4051d8:	42 00 00 00 	addu $3,$3,$16
  4051dc:	00 03 10 03 
  4051e0:	43 00 00 00 	addiu $16,$16,1
  4051e4:	01 00 10 10 
  4051e8:	30 00 00 00 	sb $2,0($3)
  4051ec:	00 00 02 03 
  4051f0:	5b 00 00 00 	slt $2,$16,$19
  4051f4:	00 02 13 10 
  4051f8:	06 00 00 00 	bne $2,$0,405170 <ReadColorMap+0x58>
  4051fc:	dc ff 00 02 
  405200:	28 00 00 00 	lw $31,40($29)
  405204:	28 00 1f 1d 
  405208:	28 00 00 00 	lw $19,36($29)
  40520c:	24 00 13 1d 
  405210:	28 00 00 00 	lw $18,32($29)
  405214:	20 00 12 1d 
  405218:	28 00 00 00 	lw $17,28($29)
  40521c:	1c 00 11 1d 
  405220:	28 00 00 00 	lw $16,24($29)
  405224:	18 00 10 1d 
  405228:	43 00 00 00 	addiu $29,$29,48
  40522c:	30 00 1d 1d 
  405230:	03 00 00 00 	jr $31
  405234:	00 00 00 1f 

00405238 <DoExtension>:
  405238:	43 00 00 00 	addiu $29,$29,-24
  40523c:	e8 ff 1d 1d 
  405240:	34 00 00 00 	sw $16,16($29)
  405244:	10 00 10 1d 
  405248:	42 00 00 00 	addu $16,$0,$4
  40524c:	00 10 04 00 
  405250:	34 00 00 00 	sw $31,20($29)
  405254:	14 00 1f 1d 
  405258:	02 00 00 00 	jal 404730 <ReadByte>
  40525c:	cc 11 10 00 
  405260:	28 00 00 00 	lw $3,24($16)
  405264:	18 00 03 10 
  405268:	28 00 00 00 	lw $4,0($3)
  40526c:	00 00 04 03 
  405270:	43 00 00 00 	addiu $3,$0,1019
  405274:	fb 03 03 00 
  405278:	34 00 00 00 	sw $3,20($4)
  40527c:	14 00 03 04 
  405280:	28 00 00 00 	lw $3,24($16)
  405284:	18 00 03 10 
  405288:	28 00 00 00 	lw $3,0($3)
  40528c:	00 00 03 03 
  405290:	34 00 00 00 	sw $2,24($3)
  405294:	18 00 02 03 
  405298:	28 00 00 00 	lw $4,24($16)
  40529c:	18 00 04 10 
  4052a0:	28 00 00 00 	lw $2,0($4)
  4052a4:	00 00 02 04 
  4052a8:	28 00 00 00 	lw $2,4($2)
  4052ac:	04 00 02 02 
  4052b0:	43 00 00 00 	addiu $5,$0,1
  4052b4:	01 00 05 00 
  4052b8:	04 00 00 00 	jalr $31,$2
  4052bc:	00 1f 00 02 
  4052c0:	42 00 00 00 	addu $4,$0,$16
  4052c4:	00 04 10 00 
  4052c8:	02 00 00 00 	jal 404928 <SkipDataBlocks>
  4052cc:	4a 12 10 00 
  4052d0:	28 00 00 00 	lw $31,20($29)
  4052d4:	14 00 1f 1d 
  4052d8:	28 00 00 00 	lw $16,16($29)
  4052dc:	10 00 10 1d 
  4052e0:	43 00 00 00 	addiu $29,$29,24
  4052e4:	18 00 1d 1d 
  4052e8:	03 00 00 00 	jr $31
  4052ec:	00 00 00 1f 

004052f0 <start_input_gif>:
  4052f0:	43 00 00 00 	addiu $29,$29,-72
  4052f4:	b8 ff 1d 1d 
  4052f8:	34 00 00 00 	sw $17,52($29)
  4052fc:	34 00 11 1d 
  405300:	42 00 00 00 	addu $17,$0,$4
  405304:	00 11 04 00 
  405308:	34 00 00 00 	sw $18,56($29)
  40530c:	38 00 12 1d 
  405310:	42 00 00 00 	addu $18,$0,$5
  405314:	00 12 05 00 
  405318:	34 00 00 00 	sw $31,68($29)
  40531c:	44 00 1f 1d 
  405320:	34 00 00 00 	sw $20,64($29)
  405324:	40 00 14 1d 
  405328:	34 00 00 00 	sw $19,60($29)
  40532c:	3c 00 13 1d 
  405330:	34 00 00 00 	sw $16,48($29)
  405334:	30 00 10 1d 
  405338:	28 00 00 00 	lw $2,4($17)
  40533c:	04 00 02 11 
  405340:	43 00 00 00 	addiu $5,$0,1
  405344:	01 00 05 00 
  405348:	28 00 00 00 	lw $2,8($2)
  40534c:	08 00 02 02 
  405350:	43 00 00 00 	addiu $6,$0,256
  405354:	00 01 06 00 
  405358:	43 00 00 00 	addiu $7,$0,3
  40535c:	03 00 07 00 
  405360:	04 00 00 00 	jalr $31,$2
  405364:	00 1f 00 02 
  405368:	43 00 00 00 	addiu $4,$29,24
  40536c:	18 00 04 1d 
  405370:	28 00 00 00 	lw $7,12($18)
  405374:	0c 00 07 12 
  405378:	43 00 00 00 	addiu $5,$0,1
  40537c:	01 00 05 00 
  405380:	43 00 00 00 	addiu $6,$0,6
  405384:	06 00 06 00 
  405388:	34 00 00 00 	sw $2,28($18)
  40538c:	1c 00 02 12 
  405390:	02 00 00 00 	jal 425050 <fread>
  405394:	14 94 10 00 
  405398:	43 00 00 00 	addiu $3,$0,6
  40539c:	06 00 03 00 
  4053a0:	05 00 00 00 	beq $2,$3,4053e0 <start_input_gif+0xf0>
  4053a4:	0e 00 03 02 
  4053a8:	28 00 00 00 	lw $3,0($17)
  4053ac:	00 00 03 11 
  4053b0:	43 00 00 00 	addiu $2,$0,1016
  4053b4:	f8 03 02 00 
  4053b8:	34 00 00 00 	sw $2,20($3)
  4053bc:	14 00 02 03 
  4053c0:	28 00 00 00 	lw $2,0($17)
  4053c4:	00 00 02 11 
  4053c8:	28 00 00 00 	lw $2,0($2)
  4053cc:	00 00 02 02 
  4053d0:	42 00 00 00 	addu $4,$0,$17
  4053d4:	00 04 11 00 
  4053d8:	04 00 00 00 	jalr $31,$2
  4053dc:	00 1f 00 02 
  4053e0:	20 00 00 00 	lb $3,24($29)
  4053e4:	18 00 03 1d 
  4053e8:	43 00 00 00 	addiu $2,$0,71
  4053ec:	47 00 02 00 
  4053f0:	06 00 00 00 	bne $3,$2,405428 <start_input_gif+0x138>
  4053f4:	0c 00 02 03 
  4053f8:	20 00 00 00 	lb $3,25($29)
  4053fc:	19 00 03 1d 
  405400:	43 00 00 00 	addiu $2,$0,73
  405404:	49 00 02 00 
  405408:	06 00 00 00 	bne $3,$2,405428 <start_input_gif+0x138>
  40540c:	06 00 02 03 
  405410:	20 00 00 00 	lb $3,26($29)
  405414:	1a 00 03 1d 
  405418:	43 00 00 00 	addiu $2,$0,70
  40541c:	46 00 02 00 
  405420:	05 00 00 00 	beq $3,$2,405460 <start_input_gif+0x170>
  405424:	0e 00 02 03 
  405428:	28 00 00 00 	lw $3,0($17)
  40542c:	00 00 03 11 
  405430:	43 00 00 00 	addiu $2,$0,1016
  405434:	f8 03 02 00 
  405438:	34 00 00 00 	sw $2,20($3)
  40543c:	14 00 02 03 
  405440:	28 00 00 00 	lw $2,0($17)
  405444:	00 00 02 11 
  405448:	28 00 00 00 	lw $2,0($2)
  40544c:	00 00 02 02 
  405450:	42 00 00 00 	addu $4,$0,$17
  405454:	00 04 11 00 
  405458:	04 00 00 00 	jalr $31,$2
  40545c:	00 1f 00 02 
  405460:	20 00 00 00 	lb $3,27($29)
  405464:	1b 00 03 1d 
  405468:	43 00 00 00 	addiu $2,$0,56
  40546c:	38 00 02 00 
  405470:	06 00 00 00 	bne $3,$2,4054b8 <start_input_gif+0x1c8>
  405474:	10 00 02 03 
  405478:	20 00 00 00 	lb $3,28($29)
  40547c:	1c 00 03 1d 
  405480:	43 00 00 00 	addiu $2,$0,55
  405484:	37 00 02 00 
  405488:	05 00 00 00 	beq $3,$2,4054a0 <start_input_gif+0x1b0>
  40548c:	04 00 02 03 
  405490:	43 00 00 00 	addiu $2,$0,57
  405494:	39 00 02 00 
  405498:	06 00 00 00 	bne $3,$2,4054b8 <start_input_gif+0x1c8>
  40549c:	06 00 02 03 
  4054a0:	20 00 00 00 	lb $3,29($29)
  4054a4:	1d 00 03 1d 
  4054a8:	43 00 00 00 	addiu $2,$0,97
  4054ac:	61 00 02 00 
  4054b0:	05 00 00 00 	beq $3,$2,405530 <start_input_gif+0x240>
  4054b4:	1e 00 02 03 
  4054b8:	28 00 00 00 	lw $3,0($17)
  4054bc:	00 00 03 11 
  4054c0:	20 00 00 00 	lb $2,27($29)
  4054c4:	1b 00 02 1d 
  4054c8:	34 00 00 00 	sw $2,24($3)
  4054cc:	18 00 02 03 
  4054d0:	20 00 00 00 	lb $2,28($29)
  4054d4:	1c 00 02 1d 
  4054d8:	34 00 00 00 	sw $2,28($3)
  4054dc:	1c 00 02 03 
  4054e0:	20 00 00 00 	lb $2,29($29)
  4054e4:	1d 00 02 1d 
  4054e8:	34 00 00 00 	sw $2,32($3)
  4054ec:	20 00 02 03 
  4054f0:	28 00 00 00 	lw $3,0($17)
  4054f4:	00 00 03 11 
  4054f8:	43 00 00 00 	addiu $2,$0,1018
  4054fc:	fa 03 02 00 
  405500:	34 00 00 00 	sw $2,20($3)
  405504:	14 00 02 03 
  405508:	28 00 00 00 	lw $2,0($17)
  40550c:	00 00 02 11 
  405510:	28 00 00 00 	lw $2,4($2)
  405514:	04 00 02 02 
  405518:	42 00 00 00 	addu $4,$0,$17
  40551c:	00 04 11 00 
  405520:	43 00 00 00 	addiu $5,$0,1
  405524:	01 00 05 00 
  405528:	04 00 00 00 	jalr $31,$2
  40552c:	00 1f 00 02 
  405530:	43 00 00 00 	addiu $4,$29,24
  405534:	18 00 04 1d 
  405538:	28 00 00 00 	lw $7,12($18)
  40553c:	0c 00 07 12 
  405540:	43 00 00 00 	addiu $5,$0,1
  405544:	01 00 05 00 
  405548:	43 00 00 00 	addiu $6,$0,7
  40554c:	07 00 06 00 
  405550:	02 00 00 00 	jal 425050 <fread>
  405554:	14 94 10 00 
  405558:	43 00 00 00 	addiu $3,$0,7
  40555c:	07 00 03 00 
  405560:	05 00 00 00 	beq $2,$3,4055a0 <start_input_gif+0x2b0>
  405564:	0e 00 03 02 
  405568:	28 00 00 00 	lw $3,0($17)
  40556c:	00 00 03 11 
  405570:	43 00 00 00 	addiu $2,$0,42
  405574:	2a 00 02 00 
  405578:	34 00 00 00 	sw $2,20($3)
  40557c:	14 00 02 03 
  405580:	28 00 00 00 	lw $2,0($17)
  405584:	00 00 02 11 
  405588:	28 00 00 00 	lw $2,0($2)
  40558c:	00 00 02 02 
  405590:	42 00 00 00 	addu $4,$0,$17
  405594:	00 04 11 00 
  405598:	04 00 00 00 	jalr $31,$2
  40559c:	00 1f 00 02 
  4055a0:	22 00 00 00 	lbu $2,28($29)
  4055a4:	1c 00 02 1d 
  4055a8:	43 00 00 00 	addiu $3,$0,2
  4055ac:	02 00 03 00 
  4055b0:	4f 00 00 00 	andi $2,$2,7
  4055b4:	07 00 02 02 
  4055b8:	56 00 00 00 	sllv $19,$3,$2
  4055bc:	00 13 03 02 
  4055c0:	22 00 00 00 	lbu $3,30($29)
  4055c4:	1e 00 03 1d 
  4055c8:	05 00 00 00 	beq $3,$0,405620 <start_input_gif+0x330>
  4055cc:	14 00 00 03 
  4055d0:	43 00 00 00 	addiu $2,$0,49
  4055d4:	31 00 02 00 
  4055d8:	05 00 00 00 	beq $3,$2,405620 <start_input_gif+0x330>
  4055dc:	10 00 02 03 
  4055e0:	28 00 00 00 	lw $3,0($17)
  4055e4:	00 00 03 11 
  4055e8:	43 00 00 00 	addiu $2,$0,1020
  4055ec:	fc 03 02 00 
  4055f0:	34 00 00 00 	sw $2,20($3)
  4055f4:	14 00 02 03 
  4055f8:	28 00 00 00 	lw $2,0($17)
  4055fc:	00 00 02 11 
  405600:	28 00 00 00 	lw $2,4($2)
  405604:	04 00 02 02 
  405608:	42 00 00 00 	addu $4,$0,$17
  40560c:	00 04 11 00 
  405610:	43 00 00 00 	addiu $5,$0,1
  405614:	01 00 05 00 
  405618:	04 00 00 00 	jalr $31,$2
  40561c:	00 1f 00 02 
  405620:	20 00 00 00 	lb $2,28($29)
  405624:	1c 00 02 1d 
  405628:	4f 00 00 00 	andi $2,$2,128
  40562c:	80 00 02 02 
  405630:	05 00 00 00 	beq $2,$0,405658 <start_input_gif+0x368>
  405634:	08 00 00 02 
  405638:	28 00 00 00 	lw $6,28($18)
  40563c:	1c 00 06 12 
  405640:	42 00 00 00 	addu $4,$0,$18
  405644:	00 04 12 00 
  405648:	42 00 00 00 	addu $5,$0,$19
  40564c:	00 05 13 00 
  405650:	02 00 00 00 	jal 405118 <ReadColorMap>
  405654:	46 14 10 00 
  405658:	42 00 00 00 	addu $4,$0,$18
  40565c:	00 04 12 00 
  405660:	02 00 00 00 	jal 404730 <ReadByte>
  405664:	cc 11 10 00 
  405668:	42 00 00 00 	addu $16,$0,$2
  40566c:	00 10 02 00 
  405670:	43 00 00 00 	addiu $2,$0,59
  405674:	3b 00 02 00 
  405678:	06 00 00 00 	bne $16,$2,4056b8 <start_input_gif+0x3c8>
  40567c:	0e 00 02 10 
  405680:	28 00 00 00 	lw $3,0($17)
  405684:	00 00 03 11 
  405688:	43 00 00 00 	addiu $2,$0,1015
  40568c:	f7 03 02 00 
  405690:	34 00 00 00 	sw $2,20($3)
  405694:	14 00 02 03 
  405698:	28 00 00 00 	lw $2,0($17)
  40569c:	00 00 02 11 
  4056a0:	28 00 00 00 	lw $2,0($2)
  4056a4:	00 00 02 02 
  4056a8:	42 00 00 00 	addu $4,$0,$17
  4056ac:	00 04 11 00 
  4056b0:	04 00 00 00 	jalr $31,$2
  4056b4:	00 1f 00 02 
  4056b8:	43 00 00 00 	addiu $2,$0,33
  4056bc:	21 00 02 00 
  4056c0:	06 00 00 00 	bne $16,$2,4056e0 <start_input_gif+0x3f0>
  4056c4:	06 00 02 10 
  4056c8:	42 00 00 00 	addu $4,$0,$18
  4056cc:	00 04 12 00 
  4056d0:	02 00 00 00 	jal 405238 <DoExtension>
  4056d4:	8e 14 10 00 
  4056d8:	01 00 00 00 	j 405658 <start_input_gif+0x368>
  4056dc:	96 15 10 00 
  4056e0:	43 00 00 00 	addiu $2,$0,44
  4056e4:	2c 00 02 00 
  4056e8:	05 00 00 00 	beq $16,$2,405748 <start_input_gif+0x458>
  4056ec:	16 00 02 10 
  4056f0:	28 00 00 00 	lw $3,0($17)
  4056f4:	00 00 03 11 
  4056f8:	43 00 00 00 	addiu $2,$0,1022
  4056fc:	fe 03 02 00 
  405700:	34 00 00 00 	sw $2,20($3)
  405704:	14 00 02 03 
  405708:	28 00 00 00 	lw $2,0($17)
  40570c:	00 00 02 11 
  405710:	34 00 00 00 	sw $16,24($2)
  405714:	18 00 10 02 
  405718:	28 00 00 00 	lw $2,0($17)
  40571c:	00 00 02 11 
  405720:	28 00 00 00 	lw $2,4($2)
  405724:	04 00 02 02 
  405728:	42 00 00 00 	addu $4,$0,$17
  40572c:	00 04 11 00 
  405730:	43 00 00 00 	addiu $5,$0,-1
  405734:	ff ff 05 00 
  405738:	04 00 00 00 	jalr $31,$2
  40573c:	00 1f 00 02 
  405740:	01 00 00 00 	j 405658 <start_input_gif+0x368>
  405744:	96 15 10 00 
  405748:	43 00 00 00 	addiu $4,$29,24
  40574c:	18 00 04 1d 
  405750:	28 00 00 00 	lw $7,12($18)
  405754:	0c 00 07 12 
  405758:	43 00 00 00 	addiu $5,$0,1
  40575c:	01 00 05 00 
  405760:	43 00 00 00 	addiu $6,$0,9
  405764:	09 00 06 00 
  405768:	02 00 00 00 	jal 425050 <fread>
  40576c:	14 94 10 00 
  405770:	43 00 00 00 	addiu $3,$0,9
  405774:	09 00 03 00 
  405778:	05 00 00 00 	beq $2,$3,4057b8 <start_input_gif+0x4c8>
  40577c:	0e 00 03 02 
  405780:	28 00 00 00 	lw $3,0($17)
  405784:	00 00 03 11 
  405788:	43 00 00 00 	addiu $2,$0,42
  40578c:	2a 00 02 00 
  405790:	34 00 00 00 	sw $2,20($3)
  405794:	14 00 02 03 
  405798:	28 00 00 00 	lw $2,0($17)
  40579c:	00 00 02 11 
  4057a0:	28 00 00 00 	lw $2,0($2)
  4057a4:	00 00 02 02 
  4057a8:	42 00 00 00 	addu $4,$0,$17
  4057ac:	00 04 11 00 
  4057b0:	04 00 00 00 	jalr $31,$2
  4057b4:	00 1f 00 02 
  4057b8:	22 00 00 00 	lbu $2,29($29)
  4057bc:	1d 00 02 1d 
  4057c0:	22 00 00 00 	lbu $3,28($29)
  4057c4:	1c 00 03 1d 
  4057c8:	55 00 00 00 	sll $2,$2,0x8
  4057cc:	08 02 02 00 
  4057d0:	50 00 00 00 	or $16,$2,$3
  4057d4:	00 10 03 02 
  4057d8:	22 00 00 00 	lbu $2,31($29)
  4057dc:	1f 00 02 1d 
  4057e0:	22 00 00 00 	lbu $3,30($29)
  4057e4:	1e 00 03 1d 
  4057e8:	55 00 00 00 	sll $2,$2,0x8
  4057ec:	08 02 02 00 
  4057f0:	50 00 00 00 	or $20,$2,$3
  4057f4:	00 14 03 02 
  4057f8:	22 00 00 00 	lbu $2,32($29)
  4057fc:	20 00 02 1d 
  405800:	4f 00 00 00 	andi $2,$2,64
  405804:	40 00 02 02 
  405808:	34 00 00 00 	sw $2,360($18)
  40580c:	68 01 02 12 
  405810:	20 00 00 00 	lb $2,32($29)
  405814:	20 00 02 1d 
  405818:	42 00 00 00 	addu $3,$0,$2
  40581c:	00 03 02 00 
  405820:	4f 00 00 00 	andi $2,$2,128
  405824:	80 00 02 02 
  405828:	05 00 00 00 	beq $2,$0,405868 <start_input_gif+0x578>
  40582c:	0e 00 00 02 
  405830:	4f 00 00 00 	andi $3,$3,7
  405834:	07 00 03 03 
  405838:	43 00 00 00 	addiu $2,$0,2
  40583c:	02 00 02 00 
  405840:	56 00 00 00 	sllv $19,$2,$3
  405844:	00 13 02 03 
  405848:	28 00 00 00 	lw $6,28($18)
  40584c:	1c 00 06 12 
  405850:	42 00 00 00 	addu $4,$0,$18
  405854:	00 04 12 00 
  405858:	42 00 00 00 	addu $5,$0,$19
  40585c:	00 05 13 00 
  405860:	02 00 00 00 	jal 405118 <ReadColorMap>
  405864:	46 14 10 00 
  405868:	42 00 00 00 	addu $4,$0,$18
  40586c:	00 04 12 00 
  405870:	02 00 00 00 	jal 404730 <ReadByte>
  405874:	cc 11 10 00 
  405878:	34 00 00 00 	sw $2,308($18)
  40587c:	34 01 02 12 
  405880:	43 00 00 00 	addiu $2,$2,-2
  405884:	fe ff 02 02 
  405888:	5e 00 00 00 	sltiu $2,$2,10
  40588c:	0a 00 02 02 
  405890:	06 00 00 00 	bne $2,$0,4058e8 <start_input_gif+0x5f8>
  405894:	14 00 00 02 
  405898:	28 00 00 00 	lw $3,0($17)
  40589c:	00 00 03 11 
  4058a0:	43 00 00 00 	addiu $2,$0,1013
  4058a4:	f5 03 02 00 
  4058a8:	34 00 00 00 	sw $2,20($3)
  4058ac:	14 00 02 03 
  4058b0:	28 00 00 00 	lw $3,0($17)
  4058b4:	00 00 03 11 
  4058b8:	28 00 00 00 	lw $2,308($18)
  4058bc:	34 01 02 12 
  4058c0:	34 00 00 00 	sw $2,24($3)
  4058c4:	18 00 02 03 
  4058c8:	28 00 00 00 	lw $2,0($17)
  4058cc:	00 00 02 11 
  4058d0:	28 00 00 00 	lw $2,0($2)
  4058d4:	00 00 02 02 
  4058d8:	42 00 00 00 	addu $4,$0,$17
  4058dc:	00 04 11 00 
  4058e0:	04 00 00 00 	jalr $31,$2
  4058e4:	00 1f 00 02 
  4058e8:	28 00 00 00 	lw $2,4($17)
  4058ec:	04 00 02 11 
  4058f0:	42 00 00 00 	addu $4,$0,$17
  4058f4:	00 04 11 00 
  4058f8:	28 00 00 00 	lw $2,4($2)
  4058fc:	04 00 02 02 
  405900:	43 00 00 00 	addiu $5,$0,1
  405904:	01 00 05 00 
  405908:	43 00 00 00 	addiu $6,$0,8192
  40590c:	00 20 06 00 
  405910:	04 00 00 00 	jalr $31,$2
  405914:	00 1f 00 02 
  405918:	34 00 00 00 	sw $2,344($18)
  40591c:	58 01 02 12 
  405920:	28 00 00 00 	lw $2,4($17)
  405924:	04 00 02 11 
  405928:	42 00 00 00 	addu $4,$0,$17
  40592c:	00 04 11 00 
  405930:	28 00 00 00 	lw $2,4($2)
  405934:	04 00 02 02 
  405938:	43 00 00 00 	addiu $5,$0,1
  40593c:	01 00 05 00 
  405940:	43 00 00 00 	addiu $6,$0,4096
  405944:	00 10 06 00 
  405948:	04 00 00 00 	jalr $31,$2
  40594c:	00 1f 00 02 
  405950:	34 00 00 00 	sw $2,348($18)
  405954:	5c 01 02 12 
  405958:	28 00 00 00 	lw $2,4($17)
  40595c:	04 00 02 11 
  405960:	42 00 00 00 	addu $4,$0,$17
  405964:	00 04 11 00 
  405968:	28 00 00 00 	lw $2,4($2)
  40596c:	04 00 02 02 
  405970:	43 00 00 00 	addiu $5,$0,1
  405974:	01 00 05 00 
  405978:	43 00 00 00 	addiu $6,$0,4096
  40597c:	00 10 06 00 
  405980:	04 00 00 00 	jalr $31,$2
  405984:	00 1f 00 02 
  405988:	42 00 00 00 	addu $4,$0,$18
  40598c:	00 04 12 00 
  405990:	34 00 00 00 	sw $2,352($18)
  405994:	60 01 02 12 
  405998:	02 00 00 00 	jal 4049e8 <InitLZWCode>
  40599c:	7a 12 10 00 
  4059a0:	28 00 00 00 	lw $2,360($18)
  4059a4:	68 01 02 12 
  4059a8:	05 00 00 00 	beq $2,$0,405a48 <start_input_gif+0x758>
  4059ac:	26 00 00 02 
  4059b0:	28 00 00 00 	lw $2,4($17)
  4059b4:	04 00 02 11 
  4059b8:	43 00 00 00 	addiu $3,$0,1
  4059bc:	01 00 03 00 
  4059c0:	42 00 00 00 	addu $4,$0,$17
  4059c4:	00 04 11 00 
  4059c8:	43 00 00 00 	addiu $5,$0,1
  4059cc:	01 00 05 00 
  4059d0:	34 00 00 00 	sw $20,16($29)
  4059d4:	10 00 14 1d 
  4059d8:	34 00 00 00 	sw $3,20($29)
  4059dc:	14 00 03 1d 
  4059e0:	28 00 00 00 	lw $2,16($2)
  4059e4:	10 00 02 02 
  4059e8:	42 00 00 00 	addu $6,$0,$0
  4059ec:	00 06 00 00 
  4059f0:	42 00 00 00 	addu $7,$0,$16
  4059f4:	00 07 10 00 
  4059f8:	04 00 00 00 	jalr $31,$2
  4059fc:	00 1f 00 02 
  405a00:	34 00 00 00 	sw $2,364($18)
  405a04:	6c 01 02 12 
  405a08:	28 00 00 00 	lw $3,8($17)
  405a0c:	08 00 03 11 
  405a10:	05 00 00 00 	beq $3,$0,405a30 <start_input_gif+0x740>
  405a14:	06 00 00 03 
  405a18:	28 00 00 00 	lw $2,24($3)
  405a1c:	18 00 02 03 
  405a20:	43 00 00 00 	addiu $2,$2,1
  405a24:	01 00 02 02 
  405a28:	34 00 00 00 	sw $2,24($3)
  405a2c:	18 00 02 03 
  405a30:	a2 00 00 00 	lui $2,64
  405a34:	40 00 02 00 
  405a38:	43 00 00 00 	addiu $2,$2,23760
  405a3c:	d0 5c 02 02 
  405a40:	01 00 00 00 	j 405a58 <start_input_gif+0x768>
  405a44:	96 16 10 00 
  405a48:	a2 00 00 00 	lui $2,64
  405a4c:	40 00 02 00 
  405a50:	43 00 00 00 	addiu $2,$2,23448
  405a54:	98 5b 02 02 
  405a58:	34 00 00 00 	sw $2,4($18)
  405a5c:	04 00 02 12 
  405a60:	28 00 00 00 	lw $2,4($17)
  405a64:	04 00 02 11 
  405a68:	55 00 00 00 	sll $6,$16,0x1
  405a6c:	01 06 10 00 
  405a70:	42 00 00 00 	addu $4,$0,$17
  405a74:	00 04 11 00 
  405a78:	43 00 00 00 	addiu $5,$0,1
  405a7c:	01 00 05 00 
  405a80:	28 00 00 00 	lw $2,8($2)
  405a84:	08 00 02 02 
  405a88:	42 00 00 00 	addu $6,$6,$16
  405a8c:	00 06 10 06 
  405a90:	43 00 00 00 	addiu $7,$0,1
  405a94:	01 00 07 00 
  405a98:	04 00 00 00 	jalr $31,$2
  405a9c:	00 1f 00 02 
  405aa0:	34 00 00 00 	sw $2,16($18)
  405aa4:	10 00 02 12 
  405aa8:	43 00 00 00 	addiu $2,$0,1
  405aac:	01 00 02 00 
  405ab0:	34 00 00 00 	sw $2,20($18)
  405ab4:	14 00 02 12 
  405ab8:	43 00 00 00 	addiu $2,$0,2
  405abc:	02 00 02 00 
  405ac0:	34 00 00 00 	sw $2,36($17)
  405ac4:	24 00 02 11 
  405ac8:	43 00 00 00 	addiu $2,$0,3
  405acc:	03 00 02 00 
  405ad0:	34 00 00 00 	sw $2,32($17)
  405ad4:	20 00 02 11 
  405ad8:	43 00 00 00 	addiu $2,$0,8
  405adc:	08 00 02 00 
  405ae0:	34 00 00 00 	sw $2,48($17)
  405ae4:	30 00 02 11 
  405ae8:	34 00 00 00 	sw $16,24($17)
  405aec:	18 00 10 11 
  405af0:	34 00 00 00 	sw $20,28($17)
  405af4:	1c 00 14 11 
  405af8:	28 00 00 00 	lw $2,0($17)
  405afc:	00 00 02 11 
  405b00:	34 00 00 00 	sw $16,24($2)
  405b04:	18 00 10 02 
  405b08:	34 00 00 00 	sw $20,28($2)
  405b0c:	1c 00 14 02 
  405b10:	34 00 00 00 	sw $19,32($2)
  405b14:	20 00 13 02 
  405b18:	28 00 00 00 	lw $3,0($17)
  405b1c:	00 00 03 11 
  405b20:	43 00 00 00 	addiu $2,$0,1017
  405b24:	f9 03 02 00 
  405b28:	34 00 00 00 	sw $2,20($3)
  405b2c:	14 00 02 03 
  405b30:	28 00 00 00 	lw $2,0($17)
  405b34:	00 00 02 11 
  405b38:	28 00 00 00 	lw $2,4($2)
  405b3c:	04 00 02 02 
  405b40:	42 00 00 00 	addu $4,$0,$17
  405b44:	00 04 11 00 
  405b48:	43 00 00 00 	addiu $5,$0,1
  405b4c:	01 00 05 00 
  405b50:	04 00 00 00 	jalr $31,$2
  405b54:	00 1f 00 02 
  405b58:	28 00 00 00 	lw $31,68($29)
  405b5c:	44 00 1f 1d 
  405b60:	28 00 00 00 	lw $20,64($29)
  405b64:	40 00 14 1d 
  405b68:	28 00 00 00 	lw $19,60($29)
  405b6c:	3c 00 13 1d 
  405b70:	28 00 00 00 	lw $18,56($29)
  405b74:	38 00 12 1d 
  405b78:	28 00 00 00 	lw $17,52($29)
  405b7c:	34 00 11 1d 
  405b80:	28 00 00 00 	lw $16,48($29)
  405b84:	30 00 10 1d 
  405b88:	43 00 00 00 	addiu $29,$29,72
  405b8c:	48 00 1d 1d 
  405b90:	03 00 00 00 	jr $31
  405b94:	00 00 00 1f 

00405b98 <get_pixel_rows>:
  405b98:	43 00 00 00 	addiu $29,$29,-40
  405b9c:	d8 ff 1d 1d 
  405ba0:	34 00 00 00 	sw $19,28($29)
  405ba4:	1c 00 13 1d 
  405ba8:	42 00 00 00 	addu $19,$0,$5
  405bac:	00 13 05 00 
  405bb0:	34 00 00 00 	sw $31,32($29)
  405bb4:	20 00 1f 1d 
  405bb8:	34 00 00 00 	sw $18,24($29)
  405bbc:	18 00 12 1d 
  405bc0:	34 00 00 00 	sw $17,20($29)
  405bc4:	14 00 11 1d 
  405bc8:	34 00 00 00 	sw $16,16($29)
  405bcc:	10 00 10 1d 
  405bd0:	28 00 00 00 	lw $2,16($19)
  405bd4:	10 00 02 13 
  405bd8:	28 00 00 00 	lw $17,24($4)
  405bdc:	18 00 11 04 
  405be0:	28 00 00 00 	lw $18,28($19)
  405be4:	1c 00 12 13 
  405be8:	28 00 00 00 	lw $16,0($2)
  405bec:	00 00 10 02 
  405bf0:	05 00 00 00 	beq $17,$0,405c90 <get_pixel_rows+0xf8>
  405bf4:	26 00 00 11 
  405bf8:	42 00 00 00 	addu $4,$0,$19
  405bfc:	00 04 13 00 
  405c00:	02 00 00 00 	jal 404ce0 <LZWReadByte>
  405c04:	38 13 10 00 
  405c08:	28 00 00 00 	lw $3,0($18)
  405c0c:	00 00 03 12 
  405c10:	42 00 00 00 	addu $3,$3,$2
  405c14:	00 03 02 03 
  405c18:	22 00 00 00 	lbu $3,0($3)
  405c1c:	00 00 03 03 
  405c20:	30 00 00 00 	sb $3,0($16)
  405c24:	00 00 03 10 
  405c28:	28 00 00 00 	lw $3,4($18)
  405c2c:	04 00 03 12 
  405c30:	42 00 00 00 	addu $3,$3,$2
  405c34:	00 03 02 03 
  405c38:	22 00 00 00 	lbu $3,0($3)
  405c3c:	00 00 03 03 
  405c40:	43 00 00 00 	addiu $16,$16,1
  405c44:	01 00 10 10 
  405c48:	30 00 00 00 	sb $3,0($16)
  405c4c:	00 00 03 10 
  405c50:	28 00 00 00 	lw $3,8($18)
  405c54:	08 00 03 12 
  405c58:	42 00 00 00 	addu $3,$3,$2
  405c5c:	00 03 02 03 
  405c60:	22 00 00 00 	lbu $2,0($3)
  405c64:	00 00 02 03 
  405c68:	43 00 00 00 	addiu $17,$17,-1
  405c6c:	ff ff 11 11 
  405c70:	43 00 00 00 	addiu $16,$16,1
  405c74:	01 00 10 10 
  405c78:	30 00 00 00 	sb $2,0($16)
  405c7c:	00 00 02 10 
  405c80:	43 00 00 00 	addiu $16,$16,1
  405c84:	01 00 10 10 
  405c88:	06 00 00 00 	bne $17,$0,405bf8 <get_pixel_rows+0x60>
  405c8c:	da ff 00 11 
  405c90:	43 00 00 00 	addiu $2,$0,1
  405c94:	01 00 02 00 
  405c98:	28 00 00 00 	lw $31,32($29)
  405c9c:	20 00 1f 1d 
  405ca0:	28 00 00 00 	lw $19,28($29)
  405ca4:	1c 00 13 1d 
  405ca8:	28 00 00 00 	lw $18,24($29)
  405cac:	18 00 12 1d 
  405cb0:	28 00 00 00 	lw $17,20($29)
  405cb4:	14 00 11 1d 
  405cb8:	28 00 00 00 	lw $16,16($29)
  405cbc:	10 00 10 1d 
  405cc0:	43 00 00 00 	addiu $29,$29,40
  405cc4:	28 00 1d 1d 
  405cc8:	03 00 00 00 	jr $31
  405ccc:	00 00 00 1f 

00405cd0 <load_interlaced_image>:
  405cd0:	43 00 00 00 	addiu $29,$29,-72
  405cd4:	b8 ff 1d 1d 
  405cd8:	34 00 00 00 	sw $18,40($29)
  405cdc:	28 00 12 1d 
  405ce0:	42 00 00 00 	addu $18,$0,$4
  405ce4:	00 12 04 00 
  405ce8:	34 00 00 00 	sw $22,56($29)
  405cec:	38 00 16 1d 
  405cf0:	42 00 00 00 	addu $22,$0,$5
  405cf4:	00 16 05 00 
  405cf8:	34 00 00 00 	sw $31,64($29)
  405cfc:	40 00 1f 1d 
  405d00:	34 00 00 00 	sw $23,60($29)
  405d04:	3c 00 17 1d 
  405d08:	34 00 00 00 	sw $21,52($29)
  405d0c:	34 00 15 1d 
  405d10:	34 00 00 00 	sw $20,48($29)
  405d14:	30 00 14 1d 
  405d18:	34 00 00 00 	sw $19,44($29)
  405d1c:	2c 00 13 1d 
  405d20:	34 00 00 00 	sw $17,36($29)
  405d24:	24 00 11 1d 
  405d28:	34 00 00 00 	sw $16,32($29)
  405d2c:	20 00 10 1d 
  405d30:	28 00 00 00 	lw $20,8($18)
  405d34:	08 00 14 12 
  405d38:	28 00 00 00 	lw $2,28($18)
  405d3c:	1c 00 02 12 
  405d40:	42 00 00 00 	addu $21,$0,$22
  405d44:	00 15 16 00 
  405d48:	42 00 00 00 	addu $19,$0,$0
  405d4c:	00 13 00 00 
  405d50:	05 00 00 00 	beq $2,$0,405e40 <load_interlaced_image+0x170>
  405d54:	3a 00 00 02 
  405d58:	43 00 00 00 	addiu $23,$0,1
  405d5c:	01 00 17 00 
  405d60:	05 00 00 00 	beq $20,$0,405d98 <load_interlaced_image+0xc8>
  405d64:	0c 00 00 14 
  405d68:	34 00 00 00 	sw $19,4($20)
  405d6c:	04 00 13 14 
  405d70:	28 00 00 00 	lw $2,28($18)
  405d74:	1c 00 02 12 
  405d78:	34 00 00 00 	sw $2,8($20)
  405d7c:	08 00 02 14 
  405d80:	28 00 00 00 	lw $2,0($20)
  405d84:	00 00 02 14 
  405d88:	42 00 00 00 	addu $4,$0,$18
  405d8c:	00 04 12 00 
  405d90:	04 00 00 00 	jalr $31,$2
  405d94:	00 1f 00 02 
  405d98:	28 00 00 00 	lw $2,4($18)
  405d9c:	04 00 02 12 
  405da0:	42 00 00 00 	addu $4,$0,$18
  405da4:	00 04 12 00 
  405da8:	34 00 00 00 	sw $23,16($29)
  405dac:	10 00 17 1d 
  405db0:	28 00 00 00 	lw $2,28($2)
  405db4:	1c 00 02 02 
  405db8:	28 00 00 00 	lw $5,364($21)
  405dbc:	6c 01 05 15 
  405dc0:	42 00 00 00 	addu $6,$0,$19
  405dc4:	00 06 13 00 
  405dc8:	43 00 00 00 	addiu $7,$0,1
  405dcc:	01 00 07 00 
  405dd0:	04 00 00 00 	jalr $31,$2
  405dd4:	00 1f 00 02 
  405dd8:	28 00 00 00 	lw $16,24($18)
  405ddc:	18 00 10 12 
  405de0:	28 00 00 00 	lw $17,0($2)
  405de4:	00 00 11 02 
  405de8:	05 00 00 00 	beq $16,$0,405e20 <load_interlaced_image+0x150>
  405dec:	0c 00 00 10 
  405df0:	42 00 00 00 	addu $4,$0,$21
  405df4:	00 04 15 00 
  405df8:	02 00 00 00 	jal 404ce0 <LZWReadByte>
  405dfc:	38 13 10 00 
  405e00:	30 00 00 00 	sb $2,0($17)
  405e04:	00 00 02 11 
  405e08:	43 00 00 00 	addiu $17,$17,1
  405e0c:	01 00 11 11 
  405e10:	43 00 00 00 	addiu $16,$16,-1
  405e14:	ff ff 10 10 
  405e18:	06 00 00 00 	bne $16,$0,405df0 <load_interlaced_image+0x120>
  405e1c:	f4 ff 00 10 
  405e20:	28 00 00 00 	lw $2,28($18)
  405e24:	1c 00 02 12 
  405e28:	43 00 00 00 	addiu $19,$19,1
  405e2c:	01 00 13 13 
  405e30:	5d 00 00 00 	sltu $2,$19,$2
  405e34:	00 02 02 13 
  405e38:	06 00 00 00 	bne $2,$0,405d60 <load_interlaced_image+0x90>
  405e3c:	c8 ff 00 02 
  405e40:	05 00 00 00 	beq $20,$0,405e60 <load_interlaced_image+0x190>
  405e44:	06 00 00 14 
  405e48:	28 00 00 00 	lw $2,20($20)
  405e4c:	14 00 02 14 
  405e50:	43 00 00 00 	addiu $2,$2,1
  405e54:	01 00 02 02 
  405e58:	34 00 00 00 	sw $2,20($20)
  405e5c:	14 00 02 14 
  405e60:	a2 00 00 00 	lui $2,64
  405e64:	40 00 02 00 
  405e68:	43 00 00 00 	addiu $2,$2,24416
  405e6c:	60 5f 02 02 
  405e70:	34 00 00 00 	sw $2,4($21)
  405e74:	04 00 02 15 
  405e78:	34 00 00 00 	sw $0,368($21)
  405e7c:	70 01 00 15 
  405e80:	28 00 00 00 	lw $2,28($18)
  405e84:	1c 00 02 12 
  405e88:	43 00 00 00 	addiu $2,$2,7
  405e8c:	07 00 02 02 
  405e90:	57 00 00 00 	srl $2,$2,0x3
  405e94:	03 02 02 00 
  405e98:	34 00 00 00 	sw $2,372($21)
  405e9c:	74 01 02 15 
  405ea0:	28 00 00 00 	lw $3,28($18)
  405ea4:	1c 00 03 12 
  405ea8:	43 00 00 00 	addiu $3,$3,3
  405eac:	03 00 03 03 
  405eb0:	57 00 00 00 	srl $3,$3,0x3
  405eb4:	03 03 03 00 
  405eb8:	42 00 00 00 	addu $3,$3,$2
  405ebc:	00 03 02 03 
  405ec0:	34 00 00 00 	sw $3,376($21)
  405ec4:	78 01 03 15 
  405ec8:	28 00 00 00 	lw $2,28($18)
  405ecc:	1c 00 02 12 
  405ed0:	42 00 00 00 	addu $4,$0,$18
  405ed4:	00 04 12 00 
  405ed8:	42 00 00 00 	addu $5,$0,$22
  405edc:	00 05 16 00 
  405ee0:	43 00 00 00 	addiu $2,$2,1
  405ee4:	01 00 02 02 
  405ee8:	57 00 00 00 	srl $2,$2,0x2
  405eec:	02 02 02 00 
  405ef0:	42 00 00 00 	addu $2,$2,$3
  405ef4:	00 02 03 02 
  405ef8:	34 00 00 00 	sw $2,380($21)
  405efc:	7c 01 02 15 
  405f00:	02 00 00 00 	jal 405f60 <get_interlaced_row>
  405f04:	d8 17 10 00 
  405f08:	28 00 00 00 	lw $31,64($29)
  405f0c:	40 00 1f 1d 
  405f10:	28 00 00 00 	lw $23,60($29)
  405f14:	3c 00 17 1d 
  405f18:	28 00 00 00 	lw $22,56($29)
  405f1c:	38 00 16 1d 
  405f20:	28 00 00 00 	lw $21,52($29)
  405f24:	34 00 15 1d 
  405f28:	28 00 00 00 	lw $20,48($29)
  405f2c:	30 00 14 1d 
  405f30:	28 00 00 00 	lw $19,44($29)
  405f34:	2c 00 13 1d 
  405f38:	28 00 00 00 	lw $18,40($29)
  405f3c:	28 00 12 1d 
  405f40:	28 00 00 00 	lw $17,36($29)
  405f44:	24 00 11 1d 
  405f48:	28 00 00 00 	lw $16,32($29)
  405f4c:	20 00 10 1d 
  405f50:	43 00 00 00 	addiu $29,$29,72
  405f54:	48 00 1d 1d 
  405f58:	03 00 00 00 	jr $31
  405f5c:	00 00 00 1f 

00405f60 <get_interlaced_row>:
  405f60:	43 00 00 00 	addiu $29,$29,-40
  405f64:	d8 ff 1d 1d 
  405f68:	34 00 00 00 	sw $16,24($29)
  405f6c:	18 00 10 1d 
  405f70:	42 00 00 00 	addu $16,$0,$5
  405f74:	00 10 05 00 
  405f78:	34 00 00 00 	sw $31,36($29)
  405f7c:	24 00 1f 1d 
  405f80:	34 00 00 00 	sw $18,32($29)
  405f84:	20 00 12 1d 
  405f88:	34 00 00 00 	sw $17,28($29)
  405f8c:	1c 00 11 1d 
  405f90:	28 00 00 00 	lw $2,368($16)
  405f94:	70 01 02 10 
  405f98:	42 00 00 00 	addu $18,$0,$4
  405f9c:	00 12 04 00 
  405fa0:	28 00 00 00 	lw $17,28($16)
  405fa4:	1c 00 11 10 
  405fa8:	4f 00 00 00 	andi $3,$2,7
  405fac:	07 00 03 02 
  405fb0:	43 00 00 00 	addiu $2,$0,2
  405fb4:	02 00 02 00 
  405fb8:	05 00 00 00 	beq $3,$2,406040 <get_interlaced_row+0xe0>
  405fbc:	20 00 02 03 
  405fc0:	5c 00 00 00 	slti $2,$3,3
  405fc4:	03 00 02 03 
  405fc8:	05 00 00 00 	beq $2,$0,405fe0 <get_interlaced_row+0x80>
  405fcc:	04 00 00 02 
  405fd0:	05 00 00 00 	beq $3,$0,406008 <get_interlaced_row+0xa8>
  405fd4:	0c 00 00 03 
  405fd8:	01 00 00 00 	j 406060 <get_interlaced_row+0x100>
  405fdc:	18 18 10 00 
  405fe0:	43 00 00 00 	addiu $2,$0,4
  405fe4:	04 00 02 00 
  405fe8:	05 00 00 00 	beq $3,$2,406020 <get_interlaced_row+0xc0>
  405fec:	0c 00 02 03 
  405ff0:	43 00 00 00 	addiu $2,$0,6
  405ff4:	06 00 02 00 
  405ff8:	05 00 00 00 	beq $3,$2,406040 <get_interlaced_row+0xe0>
  405ffc:	10 00 02 03 
  406000:	01 00 00 00 	j 406060 <get_interlaced_row+0x100>
  406004:	18 18 10 00 
  406008:	28 00 00 00 	lw $2,368($16)
  40600c:	70 01 02 10 
  406010:	57 00 00 00 	srl $6,$2,0x3
  406014:	03 06 02 00 
  406018:	01 00 00 00 	j 406080 <get_interlaced_row+0x120>
  40601c:	20 18 10 00 
  406020:	28 00 00 00 	lw $2,368($16)
  406024:	70 01 02 10 
  406028:	57 00 00 00 	srl $6,$2,0x3
  40602c:	03 06 02 00 
  406030:	28 00 00 00 	lw $2,372($16)
  406034:	74 01 02 10 
  406038:	01 00 00 00 	j 406078 <get_interlaced_row+0x118>
  40603c:	1e 18 10 00 
  406040:	28 00 00 00 	lw $2,368($16)
  406044:	70 01 02 10 
  406048:	57 00 00 00 	srl $6,$2,0x2
  40604c:	02 06 02 00 
  406050:	28 00 00 00 	lw $2,376($16)
  406054:	78 01 02 10 
  406058:	01 00 00 00 	j 406078 <get_interlaced_row+0x118>
  40605c:	1e 18 10 00 
  406060:	28 00 00 00 	lw $2,368($16)
  406064:	70 01 02 10 
  406068:	57 00 00 00 	srl $6,$2,0x1
  40606c:	01 06 02 00 
  406070:	28 00 00 00 	lw $2,380($16)
  406074:	7c 01 02 10 
  406078:	42 00 00 00 	addu $6,$6,$2
  40607c:	00 06 02 06 
  406080:	28 00 00 00 	lw $2,4($18)
  406084:	04 00 02 12 
  406088:	34 00 00 00 	sw $0,16($29)
  40608c:	10 00 00 1d 
  406090:	28 00 00 00 	lw $2,28($2)
  406094:	1c 00 02 02 
  406098:	28 00 00 00 	lw $5,364($16)
  40609c:	6c 01 05 10 
  4060a0:	42 00 00 00 	addu $4,$0,$18
  4060a4:	00 04 12 00 
  4060a8:	43 00 00 00 	addiu $7,$0,1
  4060ac:	01 00 07 00 
  4060b0:	04 00 00 00 	jalr $31,$2
  4060b4:	00 1f 00 02 
  4060b8:	28 00 00 00 	lw $6,0($2)
  4060bc:	00 00 06 02 
  4060c0:	28 00 00 00 	lw $2,16($16)
  4060c4:	10 00 02 10 
  4060c8:	28 00 00 00 	lw $4,24($18)
  4060cc:	18 00 04 12 
  4060d0:	28 00 00 00 	lw $5,0($2)
  4060d4:	00 00 05 02 
  4060d8:	05 00 00 00 	beq $4,$0,406178 <get_interlaced_row+0x218>
  4060dc:	26 00 00 04 
  4060e0:	22 00 00 00 	lbu $3,0($6)
  4060e4:	00 00 03 06 
  4060e8:	28 00 00 00 	lw $2,0($17)
  4060ec:	00 00 02 11 
  4060f0:	42 00 00 00 	addu $2,$2,$3
  4060f4:	00 02 03 02 
  4060f8:	22 00 00 00 	lbu $2,0($2)
  4060fc:	00 00 02 02 
  406100:	30 00 00 00 	sb $2,0($5)
  406104:	00 00 02 05 
  406108:	28 00 00 00 	lw $2,4($17)
  40610c:	04 00 02 11 
  406110:	42 00 00 00 	addu $2,$2,$3
  406114:	00 02 03 02 
  406118:	22 00 00 00 	lbu $2,0($2)
  40611c:	00 00 02 02 
  406120:	43 00 00 00 	addiu $5,$5,1
  406124:	01 00 05 05 
  406128:	30 00 00 00 	sb $2,0($5)
  40612c:	00 00 02 05 
  406130:	28 00 00 00 	lw $2,8($17)
  406134:	08 00 02 11 
  406138:	43 00 00 00 	addiu $4,$4,-1
  40613c:	ff ff 04 04 
  406140:	42 00 00 00 	addu $2,$2,$3
  406144:	00 02 03 02 
  406148:	22 00 00 00 	lbu $2,0($2)
  40614c:	00 00 02 02 
  406150:	43 00 00 00 	addiu $6,$6,1
  406154:	01 00 06 06 
  406158:	43 00 00 00 	addiu $5,$5,1
  40615c:	01 00 05 05 
  406160:	30 00 00 00 	sb $2,0($5)
  406164:	00 00 02 05 
  406168:	43 00 00 00 	addiu $5,$5,1
  40616c:	01 00 05 05 
  406170:	06 00 00 00 	bne $4,$0,4060e0 <get_interlaced_row+0x180>
  406174:	da ff 00 04 
  406178:	28 00 00 00 	lw $2,368($16)
  40617c:	70 01 02 10 
  406180:	43 00 00 00 	addiu $2,$2,1
  406184:	01 00 02 02 
  406188:	34 00 00 00 	sw $2,368($16)
  40618c:	70 01 02 10 
  406190:	43 00 00 00 	addiu $2,$0,1
  406194:	01 00 02 00 
  406198:	28 00 00 00 	lw $31,36($29)
  40619c:	24 00 1f 1d 
  4061a0:	28 00 00 00 	lw $18,32($29)
  4061a4:	20 00 12 1d 
  4061a8:	28 00 00 00 	lw $17,28($29)
  4061ac:	1c 00 11 1d 
  4061b0:	28 00 00 00 	lw $16,24($29)
  4061b4:	18 00 10 1d 
  4061b8:	43 00 00 00 	addiu $29,$29,40
  4061bc:	28 00 1d 1d 
  4061c0:	03 00 00 00 	jr $31
  4061c4:	00 00 00 1f 

004061c8 <finish_input_gif>:
  4061c8:	03 00 00 00 	jr $31
  4061cc:	00 00 00 1f 

004061d0 <jinit_read_gif>:
  4061d0:	43 00 00 00 	addiu $29,$29,-24
  4061d4:	e8 ff 1d 1d 
  4061d8:	34 00 00 00 	sw $16,16($29)
  4061dc:	10 00 10 1d 
  4061e0:	42 00 00 00 	addu $16,$0,$4
  4061e4:	00 10 04 00 
  4061e8:	34 00 00 00 	sw $31,20($29)
  4061ec:	14 00 1f 1d 
  4061f0:	28 00 00 00 	lw $2,4($16)
  4061f4:	04 00 02 10 
  4061f8:	28 00 00 00 	lw $2,0($2)
  4061fc:	00 00 02 02 
  406200:	43 00 00 00 	addiu $5,$0,1
  406204:	01 00 05 00 
  406208:	43 00 00 00 	addiu $6,$0,384
  40620c:	80 01 06 00 
  406210:	04 00 00 00 	jalr $31,$2
  406214:	00 1f 00 02 
  406218:	a2 00 00 00 	lui $3,64
  40621c:	40 00 03 00 
  406220:	43 00 00 00 	addiu $3,$3,21232
  406224:	f0 52 03 03 
  406228:	34 00 00 00 	sw $3,0($2)
  40622c:	00 00 03 02 
  406230:	a2 00 00 00 	lui $3,64
  406234:	40 00 03 00 
  406238:	43 00 00 00 	addiu $3,$3,25032
  40623c:	c8 61 03 03 
  406240:	34 00 00 00 	sw $16,24($2)
  406244:	18 00 10 02 
  406248:	34 00 00 00 	sw $3,8($2)
  40624c:	08 00 03 02 
  406250:	28 00 00 00 	lw $31,20($29)
  406254:	14 00 1f 1d 
  406258:	28 00 00 00 	lw $16,16($29)
  40625c:	10 00 10 1d 
  406260:	43 00 00 00 	addiu $29,$29,24
  406264:	18 00 1d 1d 
  406268:	03 00 00 00 	jr $31
  40626c:	00 00 00 1f 

00406270 <read_byte>:
  406270:	43 00 00 00 	addiu $29,$29,-32
  406274:	e0 ff 1d 1d 
  406278:	34 00 00 00 	sw $17,20($29)
  40627c:	14 00 11 1d 
  406280:	42 00 00 00 	addu $17,$0,$4
  406284:	00 11 04 00 
  406288:	34 00 00 00 	sw $31,24($29)
  40628c:	18 00 1f 1d 
  406290:	34 00 00 00 	sw $16,16($29)
  406294:	10 00 10 1d 
  406298:	28 00 00 00 	lw $4,12($17)
  40629c:	0c 00 04 11 
  4062a0:	28 00 00 00 	lw $3,4($4)
  4062a4:	04 00 03 04 
  4062a8:	28 00 00 00 	lw $2,8($4)
  4062ac:	08 00 02 04 
  4062b0:	5d 00 00 00 	sltu $2,$3,$2
  4062b4:	00 02 02 03 
  4062b8:	05 00 00 00 	beq $2,$0,4062e0 <read_byte+0x70>
  4062bc:	08 00 00 02 
  4062c0:	43 00 00 00 	addiu $2,$3,1
  4062c4:	01 00 02 03 
  4062c8:	34 00 00 00 	sw $2,4($4)
  4062cc:	04 00 02 04 
  4062d0:	22 00 00 00 	lbu $16,0($3)
  4062d4:	00 00 10 03 
  4062d8:	01 00 00 00 	j 4062f0 <read_byte+0x80>
  4062dc:	bc 18 10 00 
  4062e0:	02 00 00 00 	jal 422de8 <__fillbf>
  4062e4:	7a 8b 10 00 
  4062e8:	42 00 00 00 	addu $16,$0,$2
  4062ec:	00 10 02 00 
  4062f0:	43 00 00 00 	addiu $2,$0,-1
  4062f4:	ff ff 02 00 
  4062f8:	06 00 00 00 	bne $16,$2,406340 <read_byte+0xd0>
  4062fc:	10 00 02 10 
  406300:	28 00 00 00 	lw $2,24($17)
  406304:	18 00 02 11 
  406308:	28 00 00 00 	lw $3,0($2)
  40630c:	00 00 03 02 
  406310:	43 00 00 00 	addiu $2,$0,42
  406314:	2a 00 02 00 
  406318:	34 00 00 00 	sw $2,20($3)
  40631c:	14 00 02 03 
  406320:	28 00 00 00 	lw $4,24($17)
  406324:	18 00 04 11 
  406328:	28 00 00 00 	lw $2,0($4)
  40632c:	00 00 02 04 
  406330:	28 00 00 00 	lw $2,0($2)
  406334:	00 00 02 02 
  406338:	04 00 00 00 	jalr $31,$2
  40633c:	00 1f 00 02 
  406340:	42 00 00 00 	addu $2,$0,$16
  406344:	00 02 10 00 
  406348:	28 00 00 00 	lw $31,24($29)
  40634c:	18 00 1f 1d 
  406350:	28 00 00 00 	lw $17,20($29)
  406354:	14 00 11 1d 
  406358:	28 00 00 00 	lw $16,16($29)
  40635c:	10 00 10 1d 
  406360:	43 00 00 00 	addiu $29,$29,32
  406364:	20 00 1d 1d 
  406368:	03 00 00 00 	jr $31
  40636c:	00 00 00 1f 

00406370 <read_colormap>:
  406370:	43 00 00 00 	addiu $29,$29,-40
  406374:	d8 ff 1d 1d 
  406378:	34 00 00 00 	sw $17,28($29)
  40637c:	1c 00 11 1d 
  406380:	42 00 00 00 	addu $17,$0,$4
  406384:	00 11 04 00 
  406388:	34 00 00 00 	sw $18,32($29)
  40638c:	20 00 12 1d 
  406390:	42 00 00 00 	addu $18,$0,$5
  406394:	00 12 05 00 
  406398:	43 00 00 00 	addiu $2,$0,24
  40639c:	18 00 02 00 
  4063a0:	34 00 00 00 	sw $31,36($29)
  4063a4:	24 00 1f 1d 
  4063a8:	34 00 00 00 	sw $16,24($29)
  4063ac:	18 00 10 1d 
  4063b0:	05 00 00 00 	beq $6,$2,4063f8 <read_colormap+0x88>
  4063b4:	10 00 02 06 
  4063b8:	28 00 00 00 	lw $2,24($17)
  4063bc:	18 00 02 11 
  4063c0:	28 00 00 00 	lw $3,0($2)
  4063c4:	00 00 03 02 
  4063c8:	43 00 00 00 	addiu $2,$0,1032
  4063cc:	08 04 02 00 
  4063d0:	34 00 00 00 	sw $2,20($3)
  4063d4:	14 00 02 03 
  4063d8:	28 00 00 00 	lw $4,24($17)
  4063dc:	18 00 04 11 
  4063e0:	28 00 00 00 	lw $2,0($4)
  4063e4:	00 00 02 04 
  4063e8:	28 00 00 00 	lw $2,0($2)
  4063ec:	00 00 02 02 
  4063f0:	04 00 00 00 	jalr $31,$2
  4063f4:	00 1f 00 02 
  4063f8:	42 00 00 00 	addu $16,$0,$0
  4063fc:	00 10 00 00 
  406400:	07 00 00 00 	blez $18,4064b0 <read_colormap+0x140>
  406404:	2a 00 00 12 
  406408:	42 00 00 00 	addu $4,$0,$17
  40640c:	00 04 11 00 
  406410:	02 00 00 00 	jal 406270 <read_byte>
  406414:	9c 18 10 00 
  406418:	28 00 00 00 	lw $3,28($17)
  40641c:	1c 00 03 11 
  406420:	28 00 00 00 	lw $3,8($3)
  406424:	08 00 03 03 
  406428:	42 00 00 00 	addu $4,$0,$17
  40642c:	00 04 11 00 
  406430:	42 00 00 00 	addu $3,$3,$16
  406434:	00 03 10 03 
  406438:	30 00 00 00 	sb $2,0($3)
  40643c:	00 00 02 03 
  406440:	02 00 00 00 	jal 406270 <read_byte>
  406444:	9c 18 10 00 
  406448:	28 00 00 00 	lw $3,28($17)
  40644c:	1c 00 03 11 
  406450:	28 00 00 00 	lw $3,4($3)
  406454:	04 00 03 03 
  406458:	42 00 00 00 	addu $4,$0,$17
  40645c:	00 04 11 00 
  406460:	42 00 00 00 	addu $3,$3,$16
  406464:	00 03 10 03 
  406468:	30 00 00 00 	sb $2,0($3)
  40646c:	00 00 02 03 
  406470:	02 00 00 00 	jal 406270 <read_byte>
  406474:	9c 18 10 00 
  406478:	28 00 00 00 	lw $3,28($17)
  40647c:	1c 00 03 11 
  406480:	28 00 00 00 	lw $3,0($3)
  406484:	00 00 03 03 
  406488:	42 00 00 00 	addu $3,$3,$16
  40648c:	00 03 10 03 
  406490:	43 00 00 00 	addiu $16,$16,1
  406494:	01 00 10 10 
  406498:	30 00 00 00 	sb $2,0($3)
  40649c:	00 00 02 03 
  4064a0:	5b 00 00 00 	slt $2,$16,$18
  4064a4:	00 02 12 10 
  4064a8:	06 00 00 00 	bne $2,$0,406408 <read_colormap+0x98>
  4064ac:	d6 ff 00 02 
  4064b0:	28 00 00 00 	lw $31,36($29)
  4064b4:	24 00 1f 1d 
  4064b8:	28 00 00 00 	lw $18,32($29)
  4064bc:	20 00 12 1d 
  4064c0:	28 00 00 00 	lw $17,28($29)
  4064c4:	1c 00 11 1d 
  4064c8:	28 00 00 00 	lw $16,24($29)
  4064cc:	18 00 10 1d 
  4064d0:	43 00 00 00 	addiu $29,$29,40
  4064d4:	28 00 1d 1d 
  4064d8:	03 00 00 00 	jr $31
  4064dc:	00 00 00 1f 

004064e0 <read_non_rle_pixel>:
  4064e0:	43 00 00 00 	addiu $29,$29,-48
  4064e4:	d0 ff 1d 1d 
  4064e8:	34 00 00 00 	sw $19,36($29)
  4064ec:	24 00 13 1d 
  4064f0:	42 00 00 00 	addu $19,$0,$4
  4064f4:	00 13 04 00 
  4064f8:	34 00 00 00 	sw $31,40($29)
  4064fc:	28 00 1f 1d 
  406500:	34 00 00 00 	sw $18,32($29)
  406504:	20 00 12 1d 
  406508:	34 00 00 00 	sw $17,28($29)
  40650c:	1c 00 11 1d 
  406510:	34 00 00 00 	sw $16,24($29)
  406514:	18 00 10 1d 
  406518:	28 00 00 00 	lw $17,12($19)
  40651c:	0c 00 11 13 
  406520:	28 00 00 00 	lw $2,48($19)
  406524:	30 00 02 13 
  406528:	42 00 00 00 	addu $16,$0,$0
  40652c:	00 10 00 00 
  406530:	07 00 00 00 	blez $2,4065c0 <read_non_rle_pixel+0xe0>
  406534:	22 00 00 02 
  406538:	42 00 00 00 	addu $2,$19,$16
  40653c:	00 02 10 13 
  406540:	43 00 00 00 	addiu $18,$2,44
  406544:	2c 00 12 02 
  406548:	28 00 00 00 	lw $3,4($17)
  40654c:	04 00 03 11 
  406550:	28 00 00 00 	lw $2,8($17)
  406554:	08 00 02 11 
  406558:	5d 00 00 00 	sltu $2,$3,$2
  40655c:	00 02 02 03 
  406560:	05 00 00 00 	beq $2,$0,406588 <read_non_rle_pixel+0xa8>
  406564:	08 00 00 02 
  406568:	43 00 00 00 	addiu $2,$3,1
  40656c:	01 00 02 03 
  406570:	34 00 00 00 	sw $2,4($17)
  406574:	04 00 02 11 
  406578:	22 00 00 00 	lbu $2,0($3)
  40657c:	00 00 02 03 
  406580:	01 00 00 00 	j 406598 <read_non_rle_pixel+0xb8>
  406584:	66 19 10 00 
  406588:	42 00 00 00 	addu $4,$0,$17
  40658c:	00 04 11 00 
  406590:	02 00 00 00 	jal 422de8 <__fillbf>
  406594:	7a 8b 10 00 
  406598:	30 00 00 00 	sb $2,0($18)
  40659c:	00 00 02 12 
  4065a0:	28 00 00 00 	lw $2,48($19)
  4065a4:	30 00 02 13 
  4065a8:	43 00 00 00 	addiu $16,$16,1
  4065ac:	01 00 10 10 
  4065b0:	5b 00 00 00 	slt $2,$16,$2
  4065b4:	00 02 02 10 
  4065b8:	06 00 00 00 	bne $2,$0,406538 <read_non_rle_pixel+0x58>
  4065bc:	de ff 00 02 
  4065c0:	28 00 00 00 	lw $31,40($29)
  4065c4:	28 00 1f 1d 
  4065c8:	28 00 00 00 	lw $19,36($29)
  4065cc:	24 00 13 1d 
  4065d0:	28 00 00 00 	lw $18,32($29)
  4065d4:	20 00 12 1d 
  4065d8:	28 00 00 00 	lw $17,28($29)
  4065dc:	1c 00 11 1d 
  4065e0:	28 00 00 00 	lw $16,24($29)
  4065e4:	18 00 10 1d 
  4065e8:	43 00 00 00 	addiu $29,$29,48
  4065ec:	30 00 1d 1d 
  4065f0:	03 00 00 00 	jr $31
  4065f4:	00 00 00 1f 

004065f8 <read_rle_pixel>:
  4065f8:	43 00 00 00 	addiu $29,$29,-48
  4065fc:	d0 ff 1d 1d 
  406600:	34 00 00 00 	sw $17,28($29)
  406604:	1c 00 11 1d 
  406608:	42 00 00 00 	addu $17,$0,$4
  40660c:	00 11 04 00 
  406610:	34 00 00 00 	sw $31,40($29)
  406614:	28 00 1f 1d 
  406618:	34 00 00 00 	sw $19,36($29)
  40661c:	24 00 13 1d 
  406620:	34 00 00 00 	sw $18,32($29)
  406624:	20 00 12 1d 
  406628:	34 00 00 00 	sw $16,24($29)
  40662c:	18 00 10 1d 
  406630:	28 00 00 00 	lw $2,56($17)
  406634:	38 00 02 11 
  406638:	28 00 00 00 	lw $18,12($17)
  40663c:	0c 00 12 11 
  406640:	07 00 00 00 	blez $2,406660 <read_rle_pixel+0x68>
  406644:	06 00 00 02 
  406648:	43 00 00 00 	addiu $2,$2,-1
  40664c:	ff ff 02 02 
  406650:	34 00 00 00 	sw $2,56($17)
  406654:	38 00 02 11 
  406658:	01 00 00 00 	j 406778 <read_rle_pixel+0x180>
  40665c:	de 19 10 00 
  406660:	28 00 00 00 	lw $2,52($17)
  406664:	34 00 02 11 
  406668:	43 00 00 00 	addiu $2,$2,-1
  40666c:	ff ff 02 02 
  406670:	34 00 00 00 	sw $2,52($17)
  406674:	34 00 02 11 
  406678:	0a 00 00 00 	bgez $2,4066d8 <read_rle_pixel+0xe0>
  40667c:	16 00 00 02 
  406680:	42 00 00 00 	addu $4,$0,$17
  406684:	00 04 11 00 
  406688:	02 00 00 00 	jal 406270 <read_byte>
  40668c:	9c 18 10 00 
  406690:	42 00 00 00 	addu $16,$0,$2
  406694:	00 10 02 00 
  406698:	4f 00 00 00 	andi $2,$16,128
  40669c:	80 00 02 10 
  4066a0:	05 00 00 00 	beq $2,$0,4066c8 <read_rle_pixel+0xd0>
  4066a4:	08 00 00 02 
  4066a8:	4f 00 00 00 	andi $2,$16,127
  4066ac:	7f 00 02 10 
  4066b0:	34 00 00 00 	sw $2,56($17)
  4066b4:	38 00 02 11 
  4066b8:	34 00 00 00 	sw $0,52($17)
  4066bc:	34 00 00 11 
  4066c0:	01 00 00 00 	j 4066d8 <read_rle_pixel+0xe0>
  4066c4:	b6 19 10 00 
  4066c8:	4f 00 00 00 	andi $2,$16,127
  4066cc:	7f 00 02 10 
  4066d0:	34 00 00 00 	sw $2,52($17)
  4066d4:	34 00 02 11 
  4066d8:	28 00 00 00 	lw $2,48($17)
  4066dc:	30 00 02 11 
  4066e0:	42 00 00 00 	addu $16,$0,$0
  4066e4:	00 10 00 00 
  4066e8:	07 00 00 00 	blez $2,406778 <read_rle_pixel+0x180>
  4066ec:	22 00 00 02 
  4066f0:	42 00 00 00 	addu $2,$17,$16
  4066f4:	00 02 10 11 
  4066f8:	43 00 00 00 	addiu $19,$2,44
  4066fc:	2c 00 13 02 
  406700:	28 00 00 00 	lw $3,4($18)
  406704:	04 00 03 12 
  406708:	28 00 00 00 	lw $2,8($18)
  40670c:	08 00 02 12 
  406710:	5d 00 00 00 	sltu $2,$3,$2
  406714:	00 02 02 03 
  406718:	05 00 00 00 	beq $2,$0,406740 <read_rle_pixel+0x148>
  40671c:	08 00 00 02 
  406720:	43 00 00 00 	addiu $2,$3,1
  406724:	01 00 02 03 
  406728:	34 00 00 00 	sw $2,4($18)
  40672c:	04 00 02 12 
  406730:	22 00 00 00 	lbu $2,0($3)
  406734:	00 00 02 03 
  406738:	01 00 00 00 	j 406750 <read_rle_pixel+0x158>
  40673c:	d4 19 10 00 
  406740:	42 00 00 00 	addu $4,$0,$18
  406744:	00 04 12 00 
  406748:	02 00 00 00 	jal 422de8 <__fillbf>
  40674c:	7a 8b 10 00 
  406750:	30 00 00 00 	sb $2,0($19)
  406754:	00 00 02 13 
  406758:	28 00 00 00 	lw $2,48($17)
  40675c:	30 00 02 11 
  406760:	43 00 00 00 	addiu $16,$16,1
  406764:	01 00 10 10 
  406768:	5b 00 00 00 	slt $2,$16,$2
  40676c:	00 02 02 10 
  406770:	06 00 00 00 	bne $2,$0,4066f0 <read_rle_pixel+0xf8>
  406774:	de ff 00 02 
  406778:	28 00 00 00 	lw $31,40($29)
  40677c:	28 00 1f 1d 
  406780:	28 00 00 00 	lw $19,36($29)
  406784:	24 00 13 1d 
  406788:	28 00 00 00 	lw $18,32($29)
  40678c:	20 00 12 1d 
  406790:	28 00 00 00 	lw $17,28($29)
  406794:	1c 00 11 1d 
  406798:	28 00 00 00 	lw $16,24($29)
  40679c:	18 00 10 1d 
  4067a0:	43 00 00 00 	addiu $29,$29,48
  4067a4:	30 00 1d 1d 
  4067a8:	03 00 00 00 	jr $31
  4067ac:	00 00 00 1f 

004067b0 <get_8bit_gray_row>:
  4067b0:	43 00 00 00 	addiu $29,$29,-32
  4067b4:	e0 ff 1d 1d 
  4067b8:	34 00 00 00 	sw $17,20($29)
  4067bc:	14 00 11 1d 
  4067c0:	42 00 00 00 	addu $17,$0,$5
  4067c4:	00 11 05 00 
  4067c8:	34 00 00 00 	sw $31,28($29)
  4067cc:	1c 00 1f 1d 
  4067d0:	34 00 00 00 	sw $18,24($29)
  4067d4:	18 00 12 1d 
  4067d8:	34 00 00 00 	sw $16,16($29)
  4067dc:	10 00 10 1d 
  4067e0:	28 00 00 00 	lw $2,16($17)
  4067e4:	10 00 02 11 
  4067e8:	28 00 00 00 	lw $16,24($4)
  4067ec:	18 00 10 04 
  4067f0:	28 00 00 00 	lw $18,0($2)
  4067f4:	00 00 12 02 
  4067f8:	05 00 00 00 	beq $16,$0,406840 <get_8bit_gray_row+0x90>
  4067fc:	10 00 00 10 
  406800:	28 00 00 00 	lw $2,40($17)
  406804:	28 00 02 11 
  406808:	42 00 00 00 	addu $4,$0,$17
  40680c:	00 04 11 00 
  406810:	04 00 00 00 	jalr $31,$2
  406814:	00 1f 00 02 
  406818:	22 00 00 00 	lbu $2,44($17)
  40681c:	2c 00 02 11 
  406820:	43 00 00 00 	addiu $16,$16,-1
  406824:	ff ff 10 10 
  406828:	30 00 00 00 	sb $2,0($18)
  40682c:	00 00 02 12 
  406830:	43 00 00 00 	addiu $18,$18,1
  406834:	01 00 12 12 
  406838:	06 00 00 00 	bne $16,$0,406800 <get_8bit_gray_row+0x50>
  40683c:	f0 ff 00 10 
  406840:	43 00 00 00 	addiu $2,$0,1
  406844:	01 00 02 00 
  406848:	28 00 00 00 	lw $31,28($29)
  40684c:	1c 00 1f 1d 
  406850:	28 00 00 00 	lw $18,24($29)
  406854:	18 00 12 1d 
  406858:	28 00 00 00 	lw $17,20($29)
  40685c:	14 00 11 1d 
  406860:	28 00 00 00 	lw $16,16($29)
  406864:	10 00 10 1d 
  406868:	43 00 00 00 	addiu $29,$29,32
  40686c:	20 00 1d 1d 
  406870:	03 00 00 00 	jr $31
  406874:	00 00 00 1f 

00406878 <get_8bit_row>:
  406878:	43 00 00 00 	addiu $29,$29,-40
  40687c:	d8 ff 1d 1d 
  406880:	34 00 00 00 	sw $17,20($29)
  406884:	14 00 11 1d 
  406888:	42 00 00 00 	addu $17,$0,$5
  40688c:	00 11 05 00 
  406890:	34 00 00 00 	sw $31,32($29)
  406894:	20 00 1f 1d 
  406898:	34 00 00 00 	sw $19,28($29)
  40689c:	1c 00 13 1d 
  4068a0:	34 00 00 00 	sw $18,24($29)
  4068a4:	18 00 12 1d 
  4068a8:	34 00 00 00 	sw $16,16($29)
  4068ac:	10 00 10 1d 
  4068b0:	28 00 00 00 	lw $2,16($17)
  4068b4:	10 00 02 11 
  4068b8:	28 00 00 00 	lw $18,24($4)
  4068bc:	18 00 12 04 
  4068c0:	28 00 00 00 	lw $19,28($17)
  4068c4:	1c 00 13 11 
  4068c8:	28 00 00 00 	lw $16,0($2)
  4068cc:	00 00 10 02 
  4068d0:	05 00 00 00 	beq $18,$0,406980 <get_8bit_row+0x108>
  4068d4:	2a 00 00 12 
  4068d8:	28 00 00 00 	lw $2,40($17)
  4068dc:	28 00 02 11 
  4068e0:	42 00 00 00 	addu $4,$0,$17
  4068e4:	00 04 11 00 
  4068e8:	04 00 00 00 	jalr $31,$2
  4068ec:	00 1f 00 02 
  4068f0:	22 00 00 00 	lbu $3,44($17)
  4068f4:	2c 00 03 11 
  4068f8:	28 00 00 00 	lw $2,0($19)
  4068fc:	00 00 02 13 
  406900:	42 00 00 00 	addu $2,$2,$3
  406904:	00 02 03 02 
  406908:	22 00 00 00 	lbu $2,0($2)
  40690c:	00 00 02 02 
  406910:	30 00 00 00 	sb $2,0($16)
  406914:	00 00 02 10 
  406918:	28 00 00 00 	lw $2,4($19)
  40691c:	04 00 02 13 
  406920:	42 00 00 00 	addu $2,$2,$3
  406924:	00 02 03 02 
  406928:	22 00 00 00 	lbu $2,0($2)
  40692c:	00 00 02 02 
  406930:	43 00 00 00 	addiu $16,$16,1
  406934:	01 00 10 10 
  406938:	30 00 00 00 	sb $2,0($16)
  40693c:	00 00 02 10 
  406940:	28 00 00 00 	lw $2,8($19)
  406944:	08 00 02 13 
  406948:	42 00 00 00 	addu $2,$2,$3
  40694c:	00 02 03 02 
  406950:	22 00 00 00 	lbu $2,0($2)
  406954:	00 00 02 02 
  406958:	43 00 00 00 	addiu $18,$18,-1
  40695c:	ff ff 12 12 
  406960:	43 00 00 00 	addiu $16,$16,1
  406964:	01 00 10 10 
  406968:	30 00 00 00 	sb $2,0($16)
  40696c:	00 00 02 10 
  406970:	43 00 00 00 	addiu $16,$16,1
  406974:	01 00 10 10 
  406978:	06 00 00 00 	bne $18,$0,4068d8 <get_8bit_row+0x60>
  40697c:	d6 ff 00 12 
  406980:	43 00 00 00 	addiu $2,$0,1
  406984:	01 00 02 00 
  406988:	28 00 00 00 	lw $31,32($29)
  40698c:	20 00 1f 1d 
  406990:	28 00 00 00 	lw $19,28($29)
  406994:	1c 00 13 1d 
  406998:	28 00 00 00 	lw $18,24($29)
  40699c:	18 00 12 1d 
  4069a0:	28 00 00 00 	lw $17,20($29)
  4069a4:	14 00 11 1d 
  4069a8:	28 00 00 00 	lw $16,16($29)
  4069ac:	10 00 10 1d 
  4069b0:	43 00 00 00 	addiu $29,$29,40
  4069b4:	28 00 1d 1d 
  4069b8:	03 00 00 00 	jr $31
  4069bc:	00 00 00 1f 

004069c0 <get_16bit_row>:
  4069c0:	43 00 00 00 	addiu $29,$29,-32
  4069c4:	e0 ff 1d 1d 
  4069c8:	34 00 00 00 	sw $17,20($29)
  4069cc:	14 00 11 1d 
  4069d0:	42 00 00 00 	addu $17,$0,$5
  4069d4:	00 11 05 00 
  4069d8:	34 00 00 00 	sw $31,28($29)
  4069dc:	1c 00 1f 1d 
  4069e0:	34 00 00 00 	sw $18,24($29)
  4069e4:	18 00 12 1d 
  4069e8:	34 00 00 00 	sw $16,16($29)
  4069ec:	10 00 10 1d 
  4069f0:	28 00 00 00 	lw $2,16($17)
  4069f4:	10 00 02 11 
  4069f8:	28 00 00 00 	lw $18,24($4)
  4069fc:	18 00 12 04 
  406a00:	28 00 00 00 	lw $16,0($2)
  406a04:	00 00 10 02 
  406a08:	05 00 00 00 	beq $18,$0,406ae8 <get_16bit_row+0x128>
  406a0c:	36 00 00 12 
  406a10:	28 00 00 00 	lw $2,40($17)
  406a14:	28 00 02 11 
  406a18:	42 00 00 00 	addu $4,$0,$17
  406a1c:	00 04 11 00 
  406a20:	04 00 00 00 	jalr $31,$2
  406a24:	00 1f 00 02 
  406a28:	22 00 00 00 	lbu $2,45($17)
  406a2c:	2d 00 02 11 
  406a30:	22 00 00 00 	lbu $3,44($17)
  406a34:	2c 00 03 11 
  406a38:	55 00 00 00 	sll $2,$2,0x8
  406a3c:	08 02 02 00 
  406a40:	42 00 00 00 	addu $3,$3,$2
  406a44:	00 03 02 03 
  406a48:	4f 00 00 00 	andi $2,$3,31
  406a4c:	1f 00 02 03 
  406a50:	a2 00 00 00 	lui $1,4096
  406a54:	00 10 01 00 
  406a58:	42 00 00 00 	addu $1,$1,$2
  406a5c:	00 01 02 01 
  406a60:	22 00 00 00 	lbu $2,3184($1)
  406a64:	70 0c 02 01 
  406a68:	59 00 00 00 	sra $3,$3,0x5
  406a6c:	05 03 03 00 
  406a70:	30 00 00 00 	sb $2,2($16)
  406a74:	02 00 02 10 
  406a78:	4f 00 00 00 	andi $2,$3,31
  406a7c:	1f 00 02 03 
  406a80:	a2 00 00 00 	lui $1,4096
  406a84:	00 10 01 00 
  406a88:	42 00 00 00 	addu $1,$1,$2
  406a8c:	00 01 02 01 
  406a90:	22 00 00 00 	lbu $2,3184($1)
  406a94:	70 0c 02 01 
  406a98:	59 00 00 00 	sra $3,$3,0x5
  406a9c:	05 03 03 00 
  406aa0:	4f 00 00 00 	andi $3,$3,31
  406aa4:	1f 00 03 03 
  406aa8:	30 00 00 00 	sb $2,1($16)
  406aac:	01 00 02 10 
  406ab0:	a2 00 00 00 	lui $2,4096
  406ab4:	00 10 02 00 
  406ab8:	42 00 00 00 	addu $2,$2,$3
  406abc:	00 02 03 02 
  406ac0:	22 00 00 00 	lbu $2,3184($2)
  406ac4:	70 0c 02 02 
  406ac8:	43 00 00 00 	addiu $18,$18,-1
  406acc:	ff ff 12 12 
  406ad0:	30 00 00 00 	sb $2,0($16)
  406ad4:	00 00 02 10 
  406ad8:	43 00 00 00 	addiu $16,$16,3
  406adc:	03 00 10 10 
  406ae0:	06 00 00 00 	bne $18,$0,406a10 <get_16bit_row+0x50>
  406ae4:	ca ff 00 12 
  406ae8:	43 00 00 00 	addiu $2,$0,1
  406aec:	01 00 02 00 
  406af0:	28 00 00 00 	lw $31,28($29)
  406af4:	1c 00 1f 1d 
  406af8:	28 00 00 00 	lw $18,24($29)
  406afc:	18 00 12 1d 
  406b00:	28 00 00 00 	lw $17,20($29)
  406b04:	14 00 11 1d 
  406b08:	28 00 00 00 	lw $16,16($29)
  406b0c:	10 00 10 1d 
  406b10:	43 00 00 00 	addiu $29,$29,32
  406b14:	20 00 1d 1d 
  406b18:	03 00 00 00 	jr $31
  406b1c:	00 00 00 1f 

00406b20 <get_24bit_row>:
  406b20:	43 00 00 00 	addiu $29,$29,-32
  406b24:	e0 ff 1d 1d 
  406b28:	34 00 00 00 	sw $17,20($29)
  406b2c:	14 00 11 1d 
  406b30:	42 00 00 00 	addu $17,$0,$5
  406b34:	00 11 05 00 
  406b38:	34 00 00 00 	sw $31,28($29)
  406b3c:	1c 00 1f 1d 
  406b40:	34 00 00 00 	sw $18,24($29)
  406b44:	18 00 12 1d 
  406b48:	34 00 00 00 	sw $16,16($29)
  406b4c:	10 00 10 1d 
  406b50:	28 00 00 00 	lw $2,16($17)
  406b54:	10 00 02 11 
  406b58:	28 00 00 00 	lw $18,24($4)
  406b5c:	18 00 12 04 
  406b60:	28 00 00 00 	lw $16,0($2)
  406b64:	00 00 10 02 
  406b68:	05 00 00 00 	beq $18,$0,406be0 <get_24bit_row+0xc0>
  406b6c:	1c 00 00 12 
  406b70:	28 00 00 00 	lw $2,40($17)
  406b74:	28 00 02 11 
  406b78:	42 00 00 00 	addu $4,$0,$17
  406b7c:	00 04 11 00 
  406b80:	04 00 00 00 	jalr $31,$2
  406b84:	00 1f 00 02 
  406b88:	22 00 00 00 	lbu $2,46($17)
  406b8c:	2e 00 02 11 
  406b90:	30 00 00 00 	sb $2,0($16)
  406b94:	00 00 02 10 
  406b98:	22 00 00 00 	lbu $2,45($17)
  406b9c:	2d 00 02 11 
  406ba0:	43 00 00 00 	addiu $16,$16,1
  406ba4:	01 00 10 10 
  406ba8:	30 00 00 00 	sb $2,0($16)
  406bac:	00 00 02 10 
  406bb0:	22 00 00 00 	lbu $2,44($17)
  406bb4:	2c 00 02 11 
  406bb8:	43 00 00 00 	addiu $18,$18,-1
  406bbc:	ff ff 12 12 
  406bc0:	43 00 00 00 	addiu $16,$16,1
  406bc4:	01 00 10 10 
  406bc8:	30 00 00 00 	sb $2,0($16)
  406bcc:	00 00 02 10 
  406bd0:	43 00 00 00 	addiu $16,$16,1
  406bd4:	01 00 10 10 
  406bd8:	06 00 00 00 	bne $18,$0,406b70 <get_24bit_row+0x50>
  406bdc:	e4 ff 00 12 
  406be0:	43 00 00 00 	addiu $2,$0,1
  406be4:	01 00 02 00 
  406be8:	28 00 00 00 	lw $31,28($29)
  406bec:	1c 00 1f 1d 
  406bf0:	28 00 00 00 	lw $18,24($29)
  406bf4:	18 00 12 1d 
  406bf8:	28 00 00 00 	lw $17,20($29)
  406bfc:	14 00 11 1d 
  406c00:	28 00 00 00 	lw $16,16($29)
  406c04:	10 00 10 1d 
  406c08:	43 00 00 00 	addiu $29,$29,32
  406c0c:	20 00 1d 1d 
  406c10:	03 00 00 00 	jr $31
  406c14:	00 00 00 1f 

00406c18 <get_memory_row>:
  406c18:	43 00 00 00 	addiu $29,$29,-32
  406c1c:	e0 ff 1d 1d 
  406c20:	34 00 00 00 	sw $16,24($29)
  406c24:	18 00 10 1d 
  406c28:	42 00 00 00 	addu $16,$0,$5
  406c2c:	00 10 05 00 
  406c30:	34 00 00 00 	sw $31,28($29)
  406c34:	1c 00 1f 1d 
  406c38:	28 00 00 00 	lw $6,28($4)
  406c3c:	1c 00 06 04 
  406c40:	28 00 00 00 	lw $2,36($16)
  406c44:	24 00 02 10 
  406c48:	45 00 00 00 	subu $6,$6,$2
  406c4c:	00 06 02 06 
  406c50:	28 00 00 00 	lw $2,4($4)
  406c54:	04 00 02 04 
  406c58:	34 00 00 00 	sw $0,16($29)
  406c5c:	10 00 00 1d 
  406c60:	28 00 00 00 	lw $2,28($2)
  406c64:	1c 00 02 02 
  406c68:	28 00 00 00 	lw $5,32($16)
  406c6c:	20 00 05 10 
  406c70:	43 00 00 00 	addiu $7,$0,1
  406c74:	01 00 07 00 
  406c78:	43 00 00 00 	addiu $6,$6,-1
  406c7c:	ff ff 06 06 
  406c80:	04 00 00 00 	jalr $31,$2
  406c84:	00 1f 00 02 
  406c88:	34 00 00 00 	sw $2,16($16)
  406c8c:	10 00 02 10 
  406c90:	28 00 00 00 	lw $2,36($16)
  406c94:	24 00 02 10 
  406c98:	43 00 00 00 	addiu $2,$2,1
  406c9c:	01 00 02 02 
  406ca0:	34 00 00 00 	sw $2,36($16)
  406ca4:	24 00 02 10 
  406ca8:	43 00 00 00 	addiu $2,$0,1
  406cac:	01 00 02 00 
  406cb0:	28 00 00 00 	lw $31,28($29)
  406cb4:	1c 00 1f 1d 
  406cb8:	28 00 00 00 	lw $16,24($29)
  406cbc:	18 00 10 1d 
  406cc0:	43 00 00 00 	addiu $29,$29,32
  406cc4:	20 00 1d 1d 
  406cc8:	03 00 00 00 	jr $31
  406ccc:	00 00 00 1f 

00406cd0 <preload_image>:
  406cd0:	43 00 00 00 	addiu $29,$29,-64
  406cd4:	c0 ff 1d 1d 
  406cd8:	34 00 00 00 	sw $16,32($29)
  406cdc:	20 00 10 1d 
  406ce0:	42 00 00 00 	addu $16,$0,$4
  406ce4:	00 10 04 00 
  406ce8:	34 00 00 00 	sw $20,48($29)
  406cec:	30 00 14 1d 
  406cf0:	42 00 00 00 	addu $20,$0,$5
  406cf4:	00 14 05 00 
  406cf8:	34 00 00 00 	sw $31,56($29)
  406cfc:	38 00 1f 1d 
  406d00:	34 00 00 00 	sw $21,52($29)
  406d04:	34 00 15 1d 
  406d08:	34 00 00 00 	sw $19,44($29)
  406d0c:	2c 00 13 1d 
  406d10:	34 00 00 00 	sw $18,40($29)
  406d14:	28 00 12 1d 
  406d18:	34 00 00 00 	sw $17,36($29)
  406d1c:	24 00 11 1d 
  406d20:	28 00 00 00 	lw $18,8($16)
  406d24:	08 00 12 10 
  406d28:	28 00 00 00 	lw $2,28($16)
  406d2c:	1c 00 02 10 
  406d30:	42 00 00 00 	addu $19,$0,$20
  406d34:	00 13 14 00 
  406d38:	42 00 00 00 	addu $17,$0,$0
  406d3c:	00 11 00 00 
  406d40:	05 00 00 00 	beq $2,$0,406e10 <preload_image+0x140>
  406d44:	32 00 00 02 
  406d48:	43 00 00 00 	addiu $21,$0,1
  406d4c:	01 00 15 00 
  406d50:	05 00 00 00 	beq $18,$0,406d88 <preload_image+0xb8>
  406d54:	0c 00 00 12 
  406d58:	34 00 00 00 	sw $17,4($18)
  406d5c:	04 00 11 12 
  406d60:	28 00 00 00 	lw $2,28($16)
  406d64:	1c 00 02 10 
  406d68:	34 00 00 00 	sw $2,8($18)
  406d6c:	08 00 02 12 
  406d70:	28 00 00 00 	lw $2,0($18)
  406d74:	00 00 02 12 
  406d78:	42 00 00 00 	addu $4,$0,$16
  406d7c:	00 04 10 00 
  406d80:	04 00 00 00 	jalr $31,$2
  406d84:	00 1f 00 02 
  406d88:	28 00 00 00 	lw $2,4($16)
  406d8c:	04 00 02 10 
  406d90:	42 00 00 00 	addu $4,$0,$16
  406d94:	00 04 10 00 
  406d98:	34 00 00 00 	sw $21,16($29)
  406d9c:	10 00 15 1d 
  406da0:	28 00 00 00 	lw $2,28($2)
  406da4:	1c 00 02 02 
  406da8:	28 00 00 00 	lw $5,32($19)
  406dac:	20 00 05 13 
  406db0:	42 00 00 00 	addu $6,$0,$17
  406db4:	00 06 11 00 
  406db8:	43 00 00 00 	addiu $7,$0,1
  406dbc:	01 00 07 00 
  406dc0:	04 00 00 00 	jalr $31,$2
  406dc4:	00 1f 00 02 
  406dc8:	34 00 00 00 	sw $2,16($19)
  406dcc:	10 00 02 13 
  406dd0:	28 00 00 00 	lw $2,60($19)
  406dd4:	3c 00 02 13 
  406dd8:	42 00 00 00 	addu $4,$0,$16
  406ddc:	00 04 10 00 
  406de0:	42 00 00 00 	addu $5,$0,$20
  406de4:	00 05 14 00 
  406de8:	04 00 00 00 	jalr $31,$2
  406dec:	00 1f 00 02 
  406df0:	28 00 00 00 	lw $2,28($16)
  406df4:	1c 00 02 10 
  406df8:	43 00 00 00 	addiu $17,$17,1
  406dfc:	01 00 11 11 
  406e00:	5d 00 00 00 	sltu $2,$17,$2
  406e04:	00 02 02 11 
  406e08:	06 00 00 00 	bne $2,$0,406d50 <preload_image+0x80>
  406e0c:	d0 ff 00 02 
  406e10:	05 00 00 00 	beq $18,$0,406e30 <preload_image+0x160>
  406e14:	06 00 00 12 
  406e18:	28 00 00 00 	lw $2,20($18)
  406e1c:	14 00 02 12 
  406e20:	43 00 00 00 	addiu $2,$2,1
  406e24:	01 00 02 02 
  406e28:	34 00 00 00 	sw $2,20($18)
  406e2c:	14 00 02 12 
  406e30:	a2 00 00 00 	lui $2,64
  406e34:	40 00 02 00 
  406e38:	43 00 00 00 	addiu $2,$2,27672
  406e3c:	18 6c 02 02 
  406e40:	42 00 00 00 	addu $4,$0,$16
  406e44:	00 04 10 00 
  406e48:	42 00 00 00 	addu $5,$0,$20
  406e4c:	00 05 14 00 
  406e50:	34 00 00 00 	sw $2,4($19)
  406e54:	04 00 02 13 
  406e58:	34 00 00 00 	sw $0,36($19)
  406e5c:	24 00 00 13 
  406e60:	02 00 00 00 	jal 406c18 <get_memory_row>
  406e64:	06 1b 10 00 
  406e68:	28 00 00 00 	lw $31,56($29)
  406e6c:	38 00 1f 1d 
  406e70:	28 00 00 00 	lw $21,52($29)
  406e74:	34 00 15 1d 
  406e78:	28 00 00 00 	lw $20,48($29)
  406e7c:	30 00 14 1d 
  406e80:	28 00 00 00 	lw $19,44($29)
  406e84:	2c 00 13 1d 
  406e88:	28 00 00 00 	lw $18,40($29)
  406e8c:	28 00 12 1d 
  406e90:	28 00 00 00 	lw $17,36($29)
  406e94:	24 00 11 1d 
  406e98:	28 00 00 00 	lw $16,32($29)
  406e9c:	20 00 10 1d 
  406ea0:	43 00 00 00 	addiu $29,$29,64
  406ea4:	40 00 1d 1d 
  406ea8:	03 00 00 00 	jr $31
  406eac:	00 00 00 1f 

00406eb0 <start_input_tga>:
  406eb0:	43 00 00 00 	addiu $29,$29,-96
  406eb4:	a0 ff 1d 1d 
  406eb8:	34 00 00 00 	sw $16,56($29)
  406ebc:	38 00 10 1d 
  406ec0:	42 00 00 00 	addu $16,$0,$4
  406ec4:	00 10 04 00 
  406ec8:	34 00 00 00 	sw $17,60($29)
  406ecc:	3c 00 11 1d 
  406ed0:	42 00 00 00 	addu $17,$0,$5
  406ed4:	00 11 05 00 
  406ed8:	43 00 00 00 	addiu $4,$29,24
  406edc:	18 00 04 1d 
  406ee0:	34 00 00 00 	sw $31,92($29)
  406ee4:	5c 00 1f 1d 
  406ee8:	34 00 00 00 	sw $30,88($29)
  406eec:	58 00 1e 1d 
  406ef0:	34 00 00 00 	sw $23,84($29)
  406ef4:	54 00 17 1d 
  406ef8:	34 00 00 00 	sw $22,80($29)
  406efc:	50 00 16 1d 
  406f00:	34 00 00 00 	sw $21,76($29)
  406f04:	4c 00 15 1d 
  406f08:	34 00 00 00 	sw $20,72($29)
  406f0c:	48 00 14 1d 
  406f10:	34 00 00 00 	sw $19,68($29)
  406f14:	44 00 13 1d 
  406f18:	34 00 00 00 	sw $18,64($29)
  406f1c:	40 00 12 1d 
  406f20:	28 00 00 00 	lw $7,12($17)
  406f24:	0c 00 07 11 
  406f28:	43 00 00 00 	addiu $5,$0,1
  406f2c:	01 00 05 00 
  406f30:	43 00 00 00 	addiu $6,$0,18
  406f34:	12 00 06 00 
  406f38:	02 00 00 00 	jal 425050 <fread>
  406f3c:	14 94 10 00 
  406f40:	43 00 00 00 	addiu $3,$0,18
  406f44:	12 00 03 00 
  406f48:	05 00 00 00 	beq $2,$3,406f88 <start_input_tga+0xd8>
  406f4c:	0e 00 03 02 
  406f50:	28 00 00 00 	lw $3,0($16)
  406f54:	00 00 03 10 
  406f58:	43 00 00 00 	addiu $2,$0,42
  406f5c:	2a 00 02 00 
  406f60:	34 00 00 00 	sw $2,20($3)
  406f64:	14 00 02 03 
  406f68:	28 00 00 00 	lw $2,0($16)
  406f6c:	00 00 02 10 
  406f70:	28 00 00 00 	lw $2,0($2)
  406f74:	00 00 02 02 
  406f78:	42 00 00 00 	addu $4,$0,$16
  406f7c:	00 04 10 00 
  406f80:	04 00 00 00 	jalr $31,$2
  406f84:	00 1f 00 02 
  406f88:	22 00 00 00 	lbu $3,40($29)
  406f8c:	28 00 03 1d 
  406f90:	43 00 00 00 	addiu $2,$0,15
  406f94:	0f 00 02 00 
  406f98:	06 00 00 00 	bne $3,$2,406fb0 <start_input_tga+0x100>
  406f9c:	04 00 02 03 
  406fa0:	43 00 00 00 	addiu $2,$0,16
  406fa4:	10 00 02 00 
  406fa8:	30 00 00 00 	sb $2,40($29)
  406fac:	28 00 02 1d 
  406fb0:	22 00 00 00 	lbu $2,30($29)
  406fb4:	1e 00 02 1d 
  406fb8:	22 00 00 00 	lbu $30,29($29)
  406fbc:	1d 00 1e 1d 
  406fc0:	22 00 00 00 	lbu $8,25($29)
  406fc4:	19 00 08 1d 
  406fc8:	55 00 00 00 	sll $2,$2,0x8
  406fcc:	08 02 02 00 
  406fd0:	42 00 00 00 	addu $30,$30,$2
  406fd4:	00 1e 02 1e 
  406fd8:	22 00 00 00 	lbu $2,37($29)
  406fdc:	25 00 02 1d 
  406fe0:	22 00 00 00 	lbu $20,36($29)
  406fe4:	24 00 14 1d 
  406fe8:	22 00 00 00 	lbu $19,24($29)
  406fec:	18 00 13 1d 
  406ff0:	55 00 00 00 	sll $2,$2,0x8
  406ff4:	08 02 02 00 
  406ff8:	42 00 00 00 	addu $20,$20,$2
  406ffc:	00 14 02 14 
  407000:	22 00 00 00 	lbu $2,39($29)
  407004:	27 00 02 1d 
  407008:	22 00 00 00 	lbu $21,38($29)
  40700c:	26 00 15 1d 
  407010:	22 00 00 00 	lbu $18,26($29)
  407014:	1a 00 12 1d 
  407018:	55 00 00 00 	sll $2,$2,0x8
  40701c:	08 02 02 00 
  407020:	42 00 00 00 	addu $21,$21,$2
  407024:	00 15 02 15 
  407028:	22 00 00 00 	lbu $2,40($29)
  40702c:	28 00 02 1d 
  407030:	34 00 00 00 	sw $8,48($29)
  407034:	30 00 08 1d 
  407038:	57 00 00 00 	srl $3,$2,0x3
  40703c:	03 03 02 00 
  407040:	34 00 00 00 	sw $3,48($17)
  407044:	30 00 03 11 
  407048:	22 00 00 00 	lbu $2,41($29)
  40704c:	29 00 02 1d 
  407050:	57 00 00 00 	srl $22,$2,0x5
  407054:	05 16 02 00 
  407058:	53 00 00 00 	xori $22,$22,1
  40705c:	01 00 16 16 
  407060:	4f 00 00 00 	andi $22,$22,1
  407064:	01 00 16 16 
  407068:	59 00 00 00 	sra $4,$2,0x6
  40706c:	06 04 02 00 
  407070:	5c 00 00 00 	slti $2,$8,2
  407074:	02 00 02 08 
  407078:	05 00 00 00 	beq $2,$0,4070b8 <start_input_tga+0x208>
  40707c:	0e 00 00 02 
  407080:	43 00 00 00 	addiu $2,$3,-1
  407084:	ff ff 02 03 
  407088:	5e 00 00 00 	sltiu $2,$2,4
  40708c:	04 00 02 02 
  407090:	05 00 00 00 	beq $2,$0,4070b8 <start_input_tga+0x208>
  407094:	08 00 00 02 
  407098:	22 00 00 00 	lbu $2,40($29)
  40709c:	28 00 02 1d 
  4070a0:	4f 00 00 00 	andi $2,$2,7
  4070a4:	07 00 02 02 
  4070a8:	06 00 00 00 	bne $2,$0,4070b8 <start_input_tga+0x208>
  4070ac:	02 00 00 02 
  4070b0:	05 00 00 00 	beq $4,$0,4070f0 <start_input_tga+0x240>
  4070b4:	0e 00 00 04 
  4070b8:	28 00 00 00 	lw $3,0($16)
  4070bc:	00 00 03 10 
  4070c0:	43 00 00 00 	addiu $2,$0,1033
  4070c4:	09 04 02 00 
  4070c8:	34 00 00 00 	sw $2,20($3)
  4070cc:	14 00 02 03 
  4070d0:	28 00 00 00 	lw $2,0($16)
  4070d4:	00 00 02 10 
  4070d8:	28 00 00 00 	lw $2,0($2)
  4070dc:	00 00 02 02 
  4070e0:	42 00 00 00 	addu $4,$0,$16
  4070e4:	00 04 10 00 
  4070e8:	04 00 00 00 	jalr $31,$2
  4070ec:	00 1f 00 02 
  4070f0:	5c 00 00 00 	slti $2,$18,9
  4070f4:	09 00 02 12 
  4070f8:	06 00 00 00 	bne $2,$0,407138 <start_input_tga+0x288>
  4070fc:	0e 00 00 02 
  407100:	a2 00 00 00 	lui $2,64
  407104:	40 00 02 00 
  407108:	43 00 00 00 	addiu $2,$2,26104
  40710c:	f8 65 02 02 
  407110:	43 00 00 00 	addiu $18,$18,-8
  407114:	f8 ff 12 12 
  407118:	34 00 00 00 	sw $2,40($17)
  40711c:	28 00 02 11 
  407120:	34 00 00 00 	sw $0,56($17)
  407124:	38 00 00 11 
  407128:	34 00 00 00 	sw $0,52($17)
  40712c:	34 00 00 11 
  407130:	01 00 00 00 	j 407150 <start_input_tga+0x2a0>
  407134:	54 1c 10 00 
  407138:	a2 00 00 00 	lui $2,64
  40713c:	40 00 02 00 
  407140:	43 00 00 00 	addiu $2,$2,25824
  407144:	e0 64 02 02 
  407148:	34 00 00 00 	sw $2,40($17)
  40714c:	28 00 02 11 
  407150:	43 00 00 00 	addiu $23,$0,3
  407154:	03 00 17 00 
  407158:	43 00 00 00 	addiu $2,$0,2
  40715c:	02 00 02 00 
  407160:	34 00 00 00 	sw $2,36($16)
  407164:	24 00 02 10 
  407168:	05 00 00 00 	beq $18,$2,407248 <start_input_tga+0x398>
  40716c:	36 00 02 12 
  407170:	5c 00 00 00 	slti $2,$18,3
  407174:	03 00 02 12 
  407178:	05 00 00 00 	beq $2,$0,407198 <start_input_tga+0x2e8>
  40717c:	06 00 00 02 
  407180:	43 00 00 00 	addiu $2,$0,1
  407184:	01 00 02 00 
  407188:	05 00 00 00 	beq $18,$2,4071b0 <start_input_tga+0x300>
  40718c:	08 00 02 12 
  407190:	01 00 00 00 	j 407410 <start_input_tga+0x560>
  407194:	04 1d 10 00 
  407198:	43 00 00 00 	addiu $2,$0,3
  40719c:	03 00 02 00 
  4071a0:	05 00 00 00 	beq $18,$2,407330 <start_input_tga+0x480>
  4071a4:	62 00 02 12 
  4071a8:	01 00 00 00 	j 407410 <start_input_tga+0x560>
  4071ac:	04 1d 10 00 
  4071b0:	28 00 00 00 	lw $3,48($17)
  4071b4:	30 00 03 11 
  4071b8:	43 00 00 00 	addiu $2,$0,1
  4071bc:	01 00 02 00 
  4071c0:	06 00 00 00 	bne $3,$2,4071f8 <start_input_tga+0x348>
  4071c4:	0c 00 02 03 
  4071c8:	28 00 00 00 	lw $8,48($29)
  4071cc:	30 00 08 1d 
  4071d0:	06 00 00 00 	bne $8,$3,4071f8 <start_input_tga+0x348>
  4071d4:	08 00 03 08 
  4071d8:	a2 00 00 00 	lui $2,64
  4071dc:	40 00 02 00 
  4071e0:	43 00 00 00 	addiu $2,$2,26744
  4071e4:	78 68 02 02 
  4071e8:	34 00 00 00 	sw $2,60($17)
  4071ec:	3c 00 02 11 
  4071f0:	01 00 00 00 	j 407230 <start_input_tga+0x380>
  4071f4:	8c 1c 10 00 
  4071f8:	28 00 00 00 	lw $3,0($16)
  4071fc:	00 00 03 10 
  407200:	43 00 00 00 	addiu $2,$0,1033
  407204:	09 04 02 00 
  407208:	34 00 00 00 	sw $2,20($3)
  40720c:	14 00 02 03 
  407210:	28 00 00 00 	lw $2,0($16)
  407214:	00 00 02 10 
  407218:	28 00 00 00 	lw $2,0($2)
  40721c:	00 00 02 02 
  407220:	42 00 00 00 	addu $4,$0,$16
  407224:	00 04 10 00 
  407228:	04 00 00 00 	jalr $31,$2
  40722c:	00 1f 00 02 
  407230:	28 00 00 00 	lw $3,0($16)
  407234:	00 00 03 10 
  407238:	43 00 00 00 	addiu $2,$0,1037
  40723c:	0d 04 02 00 
  407240:	01 00 00 00 	j 4073b8 <start_input_tga+0x508>
  407244:	ee 1c 10 00 
  407248:	28 00 00 00 	lw $3,48($17)
  40724c:	30 00 03 11 
  407250:	43 00 00 00 	addiu $2,$0,3
  407254:	03 00 02 00 
  407258:	05 00 00 00 	beq $3,$2,4072c0 <start_input_tga+0x410>
  40725c:	18 00 02 03 
  407260:	5c 00 00 00 	slti $2,$3,4
  407264:	04 00 02 03 
  407268:	05 00 00 00 	beq $2,$0,407288 <start_input_tga+0x3d8>
  40726c:	06 00 00 02 
  407270:	43 00 00 00 	addiu $2,$0,2
  407274:	02 00 02 00 
  407278:	05 00 00 00 	beq $3,$2,4072a0 <start_input_tga+0x3f0>
  40727c:	08 00 02 03 
  407280:	01 00 00 00 	j 4072e0 <start_input_tga+0x430>
  407284:	b8 1c 10 00 
  407288:	43 00 00 00 	addiu $2,$0,4
  40728c:	04 00 02 00 
  407290:	05 00 00 00 	beq $3,$2,4072c0 <start_input_tga+0x410>
  407294:	0a 00 02 03 
  407298:	01 00 00 00 	j 4072e0 <start_input_tga+0x430>
  40729c:	b8 1c 10 00 
  4072a0:	a2 00 00 00 	lui $2,64
  4072a4:	40 00 02 00 
  4072a8:	43 00 00 00 	addiu $2,$2,27072
  4072ac:	c0 69 02 02 
  4072b0:	34 00 00 00 	sw $2,60($17)
  4072b4:	3c 00 02 11 
  4072b8:	01 00 00 00 	j 407318 <start_input_tga+0x468>
  4072bc:	c6 1c 10 00 
  4072c0:	a2 00 00 00 	lui $2,64
  4072c4:	40 00 02 00 
  4072c8:	43 00 00 00 	addiu $2,$2,27424
  4072cc:	20 6b 02 02 
  4072d0:	34 00 00 00 	sw $2,60($17)
  4072d4:	3c 00 02 11 
  4072d8:	01 00 00 00 	j 407318 <start_input_tga+0x468>
  4072dc:	c6 1c 10 00 
  4072e0:	28 00 00 00 	lw $3,0($16)
  4072e4:	00 00 03 10 
  4072e8:	43 00 00 00 	addiu $2,$0,1033
  4072ec:	09 04 02 00 
  4072f0:	34 00 00 00 	sw $2,20($3)
  4072f4:	14 00 02 03 
  4072f8:	28 00 00 00 	lw $2,0($16)
  4072fc:	00 00 02 10 
  407300:	28 00 00 00 	lw $2,0($2)
  407304:	00 00 02 02 
  407308:	42 00 00 00 	addu $4,$0,$16
  40730c:	00 04 10 00 
  407310:	04 00 00 00 	jalr $31,$2
  407314:	00 1f 00 02 
  407318:	28 00 00 00 	lw $3,0($16)
  40731c:	00 00 03 10 
  407320:	43 00 00 00 	addiu $2,$0,1035
  407324:	0b 04 02 00 
  407328:	01 00 00 00 	j 4073b8 <start_input_tga+0x508>
  40732c:	ee 1c 10 00 
  407330:	43 00 00 00 	addiu $23,$0,1
  407334:	01 00 17 00 
  407338:	34 00 00 00 	sw $23,36($16)
  40733c:	24 00 17 10 
  407340:	28 00 00 00 	lw $2,48($17)
  407344:	30 00 02 11 
  407348:	06 00 00 00 	bne $2,$23,407370 <start_input_tga+0x4c0>
  40734c:	08 00 17 02 
  407350:	a2 00 00 00 	lui $2,64
  407354:	40 00 02 00 
  407358:	43 00 00 00 	addiu $2,$2,26544
  40735c:	b0 67 02 02 
  407360:	34 00 00 00 	sw $2,60($17)
  407364:	3c 00 02 11 
  407368:	01 00 00 00 	j 4073a8 <start_input_tga+0x4f8>
  40736c:	ea 1c 10 00 
  407370:	28 00 00 00 	lw $3,0($16)
  407374:	00 00 03 10 
  407378:	43 00 00 00 	addiu $2,$0,1033
  40737c:	09 04 02 00 
  407380:	34 00 00 00 	sw $2,20($3)
  407384:	14 00 02 03 
  407388:	28 00 00 00 	lw $2,0($16)
  40738c:	00 00 02 10 
  407390:	28 00 00 00 	lw $2,0($2)
  407394:	00 00 02 02 
  407398:	42 00 00 00 	addu $4,$0,$16
  40739c:	00 04 10 00 
  4073a0:	04 00 00 00 	jalr $31,$2
  4073a4:	00 1f 00 02 
  4073a8:	28 00 00 00 	lw $3,0($16)
  4073ac:	00 00 03 10 
  4073b0:	43 00 00 00 	addiu $2,$0,1036
  4073b4:	0c 04 02 00 
  4073b8:	34 00 00 00 	sw $2,20($3)
  4073bc:	14 00 02 03 
  4073c0:	28 00 00 00 	lw $2,0($16)
  4073c4:	00 00 02 10 
  4073c8:	34 00 00 00 	sw $20,24($2)
  4073cc:	18 00 14 02 
  4073d0:	28 00 00 00 	lw $2,0($16)
  4073d4:	00 00 02 10 
  4073d8:	34 00 00 00 	sw $21,28($2)
  4073dc:	1c 00 15 02 
  4073e0:	28 00 00 00 	lw $2,0($16)
  4073e4:	00 00 02 10 
  4073e8:	28 00 00 00 	lw $2,4($2)
  4073ec:	04 00 02 02 
  4073f0:	42 00 00 00 	addu $4,$0,$16
  4073f4:	00 04 10 00 
  4073f8:	43 00 00 00 	addiu $5,$0,1
  4073fc:	01 00 05 00 
  407400:	04 00 00 00 	jalr $31,$2
  407404:	00 1f 00 02 
  407408:	01 00 00 00 	j 407448 <start_input_tga+0x598>
  40740c:	12 1d 10 00 
  407410:	28 00 00 00 	lw $3,0($16)
  407414:	00 00 03 10 
  407418:	43 00 00 00 	addiu $2,$0,1033
  40741c:	09 04 02 00 
  407420:	34 00 00 00 	sw $2,20($3)
  407424:	14 00 02 03 
  407428:	28 00 00 00 	lw $2,0($16)
  40742c:	00 00 02 10 
  407430:	28 00 00 00 	lw $2,0($2)
  407434:	00 00 02 02 
  407438:	42 00 00 00 	addu $4,$0,$16
  40743c:	00 04 10 00 
  407440:	04 00 00 00 	jalr $31,$2
  407444:	00 1f 00 02 
  407448:	05 00 00 00 	beq $22,$0,407500 <start_input_tga+0x650>
  40744c:	2c 00 00 16 
  407450:	46 00 00 00 	mult $20,$23
  407454:	00 00 17 14 
  407458:	4c 00 00 00 	mflo $7
  40745c:	00 07 00 00 
  407460:	28 00 00 00 	lw $2,4($16)
  407464:	04 00 02 10 
  407468:	43 00 00 00 	addiu $3,$0,1
  40746c:	01 00 03 00 
  407470:	42 00 00 00 	addu $4,$0,$16
  407474:	00 04 10 00 
  407478:	34 00 00 00 	sw $21,16($29)
  40747c:	10 00 15 1d 
  407480:	34 00 00 00 	sw $3,20($29)
  407484:	14 00 03 1d 
  407488:	28 00 00 00 	lw $2,16($2)
  40748c:	10 00 02 02 
  407490:	43 00 00 00 	addiu $5,$0,1
  407494:	01 00 05 00 
  407498:	42 00 00 00 	addu $6,$0,$0
  40749c:	00 06 00 00 
  4074a0:	04 00 00 00 	jalr $31,$2
  4074a4:	00 1f 00 02 
  4074a8:	34 00 00 00 	sw $2,32($17)
  4074ac:	20 00 02 11 
  4074b0:	28 00 00 00 	lw $3,8($16)
  4074b4:	08 00 03 10 
  4074b8:	05 00 00 00 	beq $3,$0,4074d8 <start_input_tga+0x628>
  4074bc:	06 00 00 03 
  4074c0:	28 00 00 00 	lw $2,24($3)
  4074c4:	18 00 02 03 
  4074c8:	43 00 00 00 	addiu $2,$2,1
  4074cc:	01 00 02 02 
  4074d0:	34 00 00 00 	sw $2,24($3)
  4074d4:	18 00 02 03 
  4074d8:	43 00 00 00 	addiu $2,$0,1
  4074dc:	01 00 02 00 
  4074e0:	34 00 00 00 	sw $2,20($17)
  4074e4:	14 00 02 11 
  4074e8:	a2 00 00 00 	lui $2,64
  4074ec:	40 00 02 00 
  4074f0:	43 00 00 00 	addiu $2,$2,27856
  4074f4:	d0 6c 02 02 
  4074f8:	01 00 00 00 	j 407568 <start_input_tga+0x6b8>
  4074fc:	5a 1d 10 00 
  407500:	46 00 00 00 	mult $20,$23
  407504:	00 00 17 14 
  407508:	4c 00 00 00 	mflo $6
  40750c:	00 06 00 00 
  407510:	34 00 00 00 	sw $0,32($17)
  407514:	20 00 00 11 
  407518:	28 00 00 00 	lw $2,4($16)
  40751c:	04 00 02 10 
  407520:	42 00 00 00 	addu $4,$0,$16
  407524:	00 04 10 00 
  407528:	28 00 00 00 	lw $2,8($2)
  40752c:	08 00 02 02 
  407530:	43 00 00 00 	addiu $5,$0,1
  407534:	01 00 05 00 
  407538:	43 00 00 00 	addiu $7,$0,1
  40753c:	01 00 07 00 
  407540:	04 00 00 00 	jalr $31,$2
  407544:	00 1f 00 02 
  407548:	34 00 00 00 	sw $2,16($17)
  40754c:	10 00 02 11 
  407550:	43 00 00 00 	addiu $2,$0,1
  407554:	01 00 02 00 
  407558:	34 00 00 00 	sw $2,20($17)
  40755c:	14 00 02 11 
  407560:	28 00 00 00 	lw $2,60($17)
  407564:	3c 00 02 11 
  407568:	34 00 00 00 	sw $2,4($17)
  40756c:	04 00 02 11 
  407570:	43 00 00 00 	addiu $19,$19,-1
  407574:	ff ff 13 13 
  407578:	43 00 00 00 	addiu $2,$0,-1
  40757c:	ff ff 02 00 
  407580:	05 00 00 00 	beq $19,$2,4075b0 <start_input_tga+0x700>
  407584:	0a 00 02 13 
  407588:	43 00 00 00 	addiu $18,$0,-1
  40758c:	ff ff 12 00 
  407590:	42 00 00 00 	addu $4,$0,$17
  407594:	00 04 11 00 
  407598:	02 00 00 00 	jal 406270 <read_byte>
  40759c:	9c 18 10 00 
  4075a0:	43 00 00 00 	addiu $19,$19,-1
  4075a4:	ff ff 13 13 
  4075a8:	06 00 00 00 	bne $19,$18,407590 <start_input_tga+0x6e0>
  4075ac:	f8 ff 12 13 
  4075b0:	05 00 00 00 	beq $30,$0,407690 <start_input_tga+0x7e0>
  4075b4:	36 00 00 1e 
  4075b8:	5e 00 00 00 	sltiu $2,$30,257
  4075bc:	01 01 02 1e 
  4075c0:	05 00 00 00 	beq $2,$0,4075f0 <start_input_tga+0x740>
  4075c4:	0a 00 00 02 
  4075c8:	22 00 00 00 	lbu $2,28($29)
  4075cc:	1c 00 02 1d 
  4075d0:	22 00 00 00 	lbu $3,27($29)
  4075d4:	1b 00 03 1d 
  4075d8:	55 00 00 00 	sll $2,$2,0x8
  4075dc:	08 02 02 00 
  4075e0:	42 00 00 00 	addu $3,$3,$2
  4075e4:	00 03 02 03 
  4075e8:	05 00 00 00 	beq $3,$0,407628 <start_input_tga+0x778>
  4075ec:	0e 00 00 03 
  4075f0:	28 00 00 00 	lw $3,0($16)
  4075f4:	00 00 03 10 
  4075f8:	43 00 00 00 	addiu $2,$0,1032
  4075fc:	08 04 02 00 
  407600:	34 00 00 00 	sw $2,20($3)
  407604:	14 00 02 03 
  407608:	28 00 00 00 	lw $2,0($16)
  40760c:	00 00 02 10 
  407610:	28 00 00 00 	lw $2,0($2)
  407614:	00 00 02 02 
  407618:	42 00 00 00 	addu $4,$0,$16
  40761c:	00 04 10 00 
  407620:	04 00 00 00 	jalr $31,$2
  407624:	00 1f 00 02 
  407628:	28 00 00 00 	lw $2,4($16)
  40762c:	04 00 02 10 
  407630:	42 00 00 00 	addu $4,$0,$16
  407634:	00 04 10 00 
  407638:	43 00 00 00 	addiu $5,$0,1
  40763c:	01 00 05 00 
  407640:	28 00 00 00 	lw $2,8($2)
  407644:	08 00 02 02 
  407648:	42 00 00 00 	addu $6,$0,$30
  40764c:	00 06 1e 00 
  407650:	43 00 00 00 	addiu $7,$0,3
  407654:	03 00 07 00 
  407658:	04 00 00 00 	jalr $31,$2
  40765c:	00 1f 00 02 
  407660:	34 00 00 00 	sw $2,28($17)
  407664:	1c 00 02 11 
  407668:	22 00 00 00 	lbu $6,31($29)
  40766c:	1f 00 06 1d 
  407670:	42 00 00 00 	addu $4,$0,$17
  407674:	00 04 11 00 
  407678:	42 00 00 00 	addu $5,$0,$30
  40767c:	00 05 1e 00 
  407680:	02 00 00 00 	jal 406370 <read_colormap>
  407684:	dc 18 10 00 
  407688:	01 00 00 00 	j 4076e0 <start_input_tga+0x830>
  40768c:	b8 1d 10 00 
  407690:	28 00 00 00 	lw $8,48($29)
  407694:	30 00 08 1d 
  407698:	05 00 00 00 	beq $8,$0,4076d8 <start_input_tga+0x828>
  40769c:	0e 00 00 08 
  4076a0:	28 00 00 00 	lw $3,0($16)
  4076a4:	00 00 03 10 
  4076a8:	43 00 00 00 	addiu $2,$0,1033
  4076ac:	09 04 02 00 
  4076b0:	34 00 00 00 	sw $2,20($3)
  4076b4:	14 00 02 03 
  4076b8:	28 00 00 00 	lw $2,0($16)
  4076bc:	00 00 02 10 
  4076c0:	28 00 00 00 	lw $2,0($2)
  4076c4:	00 00 02 02 
  4076c8:	42 00 00 00 	addu $4,$0,$16
  4076cc:	00 04 10 00 
  4076d0:	04 00 00 00 	jalr $31,$2
  4076d4:	00 1f 00 02 
  4076d8:	34 00 00 00 	sw $0,28($17)
  4076dc:	1c 00 00 11 
  4076e0:	43 00 00 00 	addiu $2,$0,8
  4076e4:	08 00 02 00 
  4076e8:	34 00 00 00 	sw $23,32($16)
  4076ec:	20 00 17 10 
  4076f0:	34 00 00 00 	sw $2,48($16)
  4076f4:	30 00 02 10 
  4076f8:	34 00 00 00 	sw $20,24($16)
  4076fc:	18 00 14 10 
  407700:	34 00 00 00 	sw $21,28($16)
  407704:	1c 00 15 10 
  407708:	28 00 00 00 	lw $31,92($29)
  40770c:	5c 00 1f 1d 
  407710:	28 00 00 00 	lw $30,88($29)
  407714:	58 00 1e 1d 
  407718:	28 00 00 00 	lw $23,84($29)
  40771c:	54 00 17 1d 
  407720:	28 00 00 00 	lw $22,80($29)
  407724:	50 00 16 1d 
  407728:	28 00 00 00 	lw $21,76($29)
  40772c:	4c 00 15 1d 
  407730:	28 00 00 00 	lw $20,72($29)
  407734:	48 00 14 1d 
  407738:	28 00 00 00 	lw $19,68($29)
  40773c:	44 00 13 1d 
  407740:	28 00 00 00 	lw $18,64($29)
  407744:	40 00 12 1d 
  407748:	28 00 00 00 	lw $17,60($29)
  40774c:	3c 00 11 1d 
  407750:	28 00 00 00 	lw $16,56($29)
  407754:	38 00 10 1d 
  407758:	43 00 00 00 	addiu $29,$29,96
  40775c:	60 00 1d 1d 
  407760:	03 00 00 00 	jr $31
  407764:	00 00 00 1f 

00407768 <finish_input_tga>:
  407768:	03 00 00 00 	jr $31
  40776c:	00 00 00 1f 

00407770 <jinit_read_targa>:
  407770:	43 00 00 00 	addiu $29,$29,-24
  407774:	e8 ff 1d 1d 
  407778:	34 00 00 00 	sw $16,16($29)
  40777c:	10 00 10 1d 
  407780:	42 00 00 00 	addu $16,$0,$4
  407784:	00 10 04 00 
  407788:	34 00 00 00 	sw $31,20($29)
  40778c:	14 00 1f 1d 
  407790:	28 00 00 00 	lw $2,4($16)
  407794:	04 00 02 10 
  407798:	28 00 00 00 	lw $2,0($2)
  40779c:	00 00 02 02 
  4077a0:	43 00 00 00 	addiu $5,$0,1
  4077a4:	01 00 05 00 
  4077a8:	43 00 00 00 	addiu $6,$0,64
  4077ac:	40 00 06 00 
  4077b0:	04 00 00 00 	jalr $31,$2
  4077b4:	00 1f 00 02 
  4077b8:	a2 00 00 00 	lui $3,64
  4077bc:	40 00 03 00 
  4077c0:	43 00 00 00 	addiu $3,$3,28336
  4077c4:	b0 6e 03 03 
  4077c8:	34 00 00 00 	sw $3,0($2)
  4077cc:	00 00 03 02 
  4077d0:	a2 00 00 00 	lui $3,64
  4077d4:	40 00 03 00 
  4077d8:	43 00 00 00 	addiu $3,$3,30568
  4077dc:	68 77 03 03 
  4077e0:	34 00 00 00 	sw $16,24($2)
  4077e4:	18 00 10 02 
  4077e8:	34 00 00 00 	sw $3,8($2)
  4077ec:	08 00 03 02 
  4077f0:	28 00 00 00 	lw $31,20($29)
  4077f4:	14 00 1f 1d 
  4077f8:	28 00 00 00 	lw $16,16($29)
  4077fc:	10 00 10 1d 
  407800:	43 00 00 00 	addiu $29,$29,24
  407804:	18 00 1d 1d 
  407808:	03 00 00 00 	jr $31
  40780c:	00 00 00 1f 

00407810 <read_byte>:
  407810:	43 00 00 00 	addiu $29,$29,-32
  407814:	e0 ff 1d 1d 
  407818:	34 00 00 00 	sw $17,20($29)
  40781c:	14 00 11 1d 
  407820:	42 00 00 00 	addu $17,$0,$4
  407824:	00 11 04 00 
  407828:	34 00 00 00 	sw $31,24($29)
  40782c:	18 00 1f 1d 
  407830:	34 00 00 00 	sw $16,16($29)
  407834:	10 00 10 1d 
  407838:	28 00 00 00 	lw $4,12($17)
  40783c:	0c 00 04 11 
  407840:	28 00 00 00 	lw $3,4($4)
  407844:	04 00 03 04 
  407848:	28 00 00 00 	lw $2,8($4)
  40784c:	08 00 02 04 
  407850:	5d 00 00 00 	sltu $2,$3,$2
  407854:	00 02 02 03 
  407858:	05 00 00 00 	beq $2,$0,407880 <read_byte+0x70>
  40785c:	08 00 00 02 
  407860:	43 00 00 00 	addiu $2,$3,1
  407864:	01 00 02 03 
  407868:	34 00 00 00 	sw $2,4($4)
  40786c:	04 00 02 04 
  407870:	22 00 00 00 	lbu $16,0($3)
  407874:	00 00 10 03 
  407878:	01 00 00 00 	j 407890 <read_byte+0x80>
  40787c:	24 1e 10 00 
  407880:	02 00 00 00 	jal 422de8 <__fillbf>
  407884:	7a 8b 10 00 
  407888:	42 00 00 00 	addu $16,$0,$2
  40788c:	00 10 02 00 
  407890:	43 00 00 00 	addiu $2,$0,-1
  407894:	ff ff 02 00 
  407898:	06 00 00 00 	bne $16,$2,4078e0 <read_byte+0xd0>
  40789c:	10 00 02 10 
  4078a0:	28 00 00 00 	lw $2,24($17)
  4078a4:	18 00 02 11 
  4078a8:	28 00 00 00 	lw $3,0($2)
  4078ac:	00 00 03 02 
  4078b0:	43 00 00 00 	addiu $2,$0,42
  4078b4:	2a 00 02 00 
  4078b8:	34 00 00 00 	sw $2,20($3)
  4078bc:	14 00 02 03 
  4078c0:	28 00 00 00 	lw $4,24($17)
  4078c4:	18 00 04 11 
  4078c8:	28 00 00 00 	lw $2,0($4)
  4078cc:	00 00 02 04 
  4078d0:	28 00 00 00 	lw $2,0($2)
  4078d4:	00 00 02 02 
  4078d8:	04 00 00 00 	jalr $31,$2
  4078dc:	00 1f 00 02 
  4078e0:	42 00 00 00 	addu $2,$0,$16
  4078e4:	00 02 10 00 
  4078e8:	28 00 00 00 	lw $31,24($29)
  4078ec:	18 00 1f 1d 
  4078f0:	28 00 00 00 	lw $17,20($29)
  4078f4:	14 00 11 1d 
  4078f8:	28 00 00 00 	lw $16,16($29)
  4078fc:	10 00 10 1d 
  407900:	43 00 00 00 	addiu $29,$29,32
  407904:	20 00 1d 1d 
  407908:	03 00 00 00 	jr $31
  40790c:	00 00 00 1f 

00407910 <read_colormap>:
  407910:	43 00 00 00 	addiu $29,$29,-48
  407914:	d0 ff 1d 1d 
  407918:	34 00 00 00 	sw $17,36($29)
  40791c:	24 00 11 1d 
  407920:	42 00 00 00 	addu $17,$0,$4
  407924:	00 11 04 00 
  407928:	34 00 00 00 	sw $18,40($29)
  40792c:	28 00 12 1d 
  407930:	42 00 00 00 	addu $18,$0,$5
  407934:	00 12 05 00 
  407938:	43 00 00 00 	addiu $2,$0,3
  40793c:	03 00 02 00 
  407940:	34 00 00 00 	sw $31,44($29)
  407944:	2c 00 1f 1d 
  407948:	34 00 00 00 	sw $16,32($29)
  40794c:	20 00 10 1d 
  407950:	05 00 00 00 	beq $6,$2,407970 <read_colormap+0x60>
  407954:	06 00 02 06 
  407958:	43 00 00 00 	addiu $2,$0,4
  40795c:	04 00 02 00 
  407960:	05 00 00 00 	beq $6,$2,407a30 <read_colormap+0x120>
  407964:	32 00 02 06 
  407968:	01 00 00 00 	j 407b00 <read_colormap+0x1f0>
  40796c:	c0 1e 10 00 
  407970:	42 00 00 00 	addu $16,$0,$0
  407974:	00 10 00 00 
  407978:	07 00 00 00 	blez $18,407b40 <read_colormap+0x230>
  40797c:	70 00 00 12 
  407980:	42 00 00 00 	addu $4,$0,$17
  407984:	00 04 11 00 
  407988:	02 00 00 00 	jal 407810 <read_byte>
  40798c:	04 1e 10 00 
  407990:	28 00 00 00 	lw $3,28($17)
  407994:	1c 00 03 11 
  407998:	28 00 00 00 	lw $3,8($3)
  40799c:	08 00 03 03 
  4079a0:	42 00 00 00 	addu $4,$0,$17
  4079a4:	00 04 11 00 
  4079a8:	42 00 00 00 	addu $3,$3,$16
  4079ac:	00 03 10 03 
  4079b0:	30 00 00 00 	sb $2,0($3)
  4079b4:	00 00 02 03 
  4079b8:	02 00 00 00 	jal 407810 <read_byte>
  4079bc:	04 1e 10 00 
  4079c0:	28 00 00 00 	lw $3,28($17)
  4079c4:	1c 00 03 11 
  4079c8:	28 00 00 00 	lw $3,4($3)
  4079cc:	04 00 03 03 
  4079d0:	42 00 00 00 	addu $4,$0,$17
  4079d4:	00 04 11 00 
  4079d8:	42 00 00 00 	addu $3,$3,$16
  4079dc:	00 03 10 03 
  4079e0:	30 00 00 00 	sb $2,0($3)
  4079e4:	00 00 02 03 
  4079e8:	02 00 00 00 	jal 407810 <read_byte>
  4079ec:	04 1e 10 00 
  4079f0:	28 00 00 00 	lw $3,28($17)
  4079f4:	1c 00 03 11 
  4079f8:	28 00 00 00 	lw $3,0($3)
  4079fc:	00 00 03 03 
  407a00:	42 00 00 00 	addu $3,$3,$16
  407a04:	00 03 10 03 
  407a08:	43 00 00 00 	addiu $16,$16,1
  407a0c:	01 00 10 10 
  407a10:	30 00 00 00 	sb $2,0($3)
  407a14:	00 00 02 03 
  407a18:	5b 00 00 00 	slt $2,$16,$18
  407a1c:	00 02 12 10 
  407a20:	06 00 00 00 	bne $2,$0,407980 <read_colormap+0x70>
  407a24:	d6 ff 00 02 
  407a28:	01 00 00 00 	j 407b40 <read_colormap+0x230>
  407a2c:	d0 1e 10 00 
  407a30:	42 00 00 00 	addu $16,$0,$0
  407a34:	00 10 00 00 
  407a38:	07 00 00 00 	blez $18,407b40 <read_colormap+0x230>
  407a3c:	40 00 00 12 
  407a40:	42 00 00 00 	addu $4,$0,$17
  407a44:	00 04 11 00 
  407a48:	02 00 00 00 	jal 407810 <read_byte>
  407a4c:	04 1e 10 00 
  407a50:	28 00 00 00 	lw $3,28($17)
  407a54:	1c 00 03 11 
  407a58:	28 00 00 00 	lw $3,8($3)
  407a5c:	08 00 03 03 
  407a60:	42 00 00 00 	addu $4,$0,$17
  407a64:	00 04 11 00 
  407a68:	42 00 00 00 	addu $3,$3,$16
  407a6c:	00 03 10 03 
  407a70:	30 00 00 00 	sb $2,0($3)
  407a74:	00 00 02 03 
  407a78:	02 00 00 00 	jal 407810 <read_byte>
  407a7c:	04 1e 10 00 
  407a80:	28 00 00 00 	lw $3,28($17)
  407a84:	1c 00 03 11 
  407a88:	28 00 00 00 	lw $3,4($3)
  407a8c:	04 00 03 03 
  407a90:	42 00 00 00 	addu $4,$0,$17
  407a94:	00 04 11 00 
  407a98:	42 00 00 00 	addu $3,$3,$16
  407a9c:	00 03 10 03 
  407aa0:	30 00 00 00 	sb $2,0($3)
  407aa4:	00 00 02 03 
  407aa8:	02 00 00 00 	jal 407810 <read_byte>
  407aac:	04 1e 10 00 
  407ab0:	28 00 00 00 	lw $3,28($17)
  407ab4:	1c 00 03 11 
  407ab8:	28 00 00 00 	lw $3,0($3)
  407abc:	00 00 03 03 
  407ac0:	42 00 00 00 	addu $4,$0,$17
  407ac4:	00 04 11 00 
  407ac8:	42 00 00 00 	addu $3,$3,$16
  407acc:	00 03 10 03 
  407ad0:	30 00 00 00 	sb $2,0($3)
  407ad4:	00 00 02 03 
  407ad8:	02 00 00 00 	jal 407810 <read_byte>
  407adc:	04 1e 10 00 
  407ae0:	43 00 00 00 	addiu $16,$16,1
  407ae4:	01 00 10 10 
  407ae8:	5b 00 00 00 	slt $2,$16,$18
  407aec:	00 02 12 10 
  407af0:	06 00 00 00 	bne $2,$0,407a40 <read_colormap+0x130>
  407af4:	d2 ff 00 02 
  407af8:	01 00 00 00 	j 407b40 <read_colormap+0x230>
  407afc:	d0 1e 10 00 
  407b00:	28 00 00 00 	lw $2,24($17)
  407b04:	18 00 02 11 
  407b08:	28 00 00 00 	lw $3,0($2)
  407b0c:	00 00 03 02 
  407b10:	43 00 00 00 	addiu $2,$0,1001
  407b14:	e9 03 02 00 
  407b18:	34 00 00 00 	sw $2,20($3)
  407b1c:	14 00 02 03 
  407b20:	28 00 00 00 	lw $4,24($17)
  407b24:	18 00 04 11 
  407b28:	28 00 00 00 	lw $2,0($4)
  407b2c:	00 00 02 04 
  407b30:	28 00 00 00 	lw $2,0($2)
  407b34:	00 00 02 02 
  407b38:	04 00 00 00 	jalr $31,$2
  407b3c:	00 1f 00 02 
  407b40:	28 00 00 00 	lw $31,44($29)
  407b44:	2c 00 1f 1d 
  407b48:	28 00 00 00 	lw $18,40($29)
  407b4c:	28 00 12 1d 
  407b50:	28 00 00 00 	lw $17,36($29)
  407b54:	24 00 11 1d 
  407b58:	28 00 00 00 	lw $16,32($29)
  407b5c:	20 00 10 1d 
  407b60:	43 00 00 00 	addiu $29,$29,48
  407b64:	30 00 1d 1d 
  407b68:	03 00 00 00 	jr $31
  407b6c:	00 00 00 1f 

00407b70 <get_8bit_row>:
  407b70:	43 00 00 00 	addiu $29,$29,-40
  407b74:	d8 ff 1d 1d 
  407b78:	34 00 00 00 	sw $16,24($29)
  407b7c:	18 00 10 1d 
  407b80:	42 00 00 00 	addu $16,$0,$5
  407b84:	00 10 05 00 
  407b88:	34 00 00 00 	sw $31,36($29)
  407b8c:	24 00 1f 1d 
  407b90:	34 00 00 00 	sw $18,32($29)
  407b94:	20 00 12 1d 
  407b98:	34 00 00 00 	sw $17,28($29)
  407b9c:	1c 00 11 1d 
  407ba0:	28 00 00 00 	lw $2,36($16)
  407ba4:	24 00 02 10 
  407ba8:	28 00 00 00 	lw $18,28($16)
  407bac:	1c 00 12 10 
  407bb0:	42 00 00 00 	addu $17,$0,$4
  407bb4:	00 11 04 00 
  407bb8:	43 00 00 00 	addiu $2,$2,-1
  407bbc:	ff ff 02 02 
  407bc0:	34 00 00 00 	sw $2,36($16)
  407bc4:	24 00 02 10 
  407bc8:	28 00 00 00 	lw $2,4($17)
  407bcc:	04 00 02 11 
  407bd0:	34 00 00 00 	sw $0,16($29)
  407bd4:	10 00 00 1d 
  407bd8:	28 00 00 00 	lw $2,28($2)
  407bdc:	1c 00 02 02 
  407be0:	28 00 00 00 	lw $5,32($16)
  407be4:	20 00 05 10 
  407be8:	28 00 00 00 	lw $6,36($16)
  407bec:	24 00 06 10 
  407bf0:	43 00 00 00 	addiu $7,$0,1
  407bf4:	01 00 07 00 
  407bf8:	04 00 00 00 	jalr $31,$2
  407bfc:	00 1f 00 02 
  407c00:	28 00 00 00 	lw $6,0($2)
  407c04:	00 00 06 02 
  407c08:	28 00 00 00 	lw $2,16($16)
  407c0c:	10 00 02 10 
  407c10:	28 00 00 00 	lw $5,24($17)
  407c14:	18 00 05 11 
  407c18:	28 00 00 00 	lw $4,0($2)
  407c1c:	00 00 04 02 
