
main_loc_1P.o:     file format ss-coff-little

Disassembly of section .text:

00000000 <__it_handle>:
       0:	43 00 00 00 	addiu $29,$29,-8
       4:	f8 ff 1d 1d 
       8:	34 00 00 00 	sw $30,0($29)
       c:	00 00 1e 1d 
      10:	42 00 00 00 	addu $30,$0,$29
      14:	00 1e 1d 00 
      18:	28 00 00 00 	lw $2,-16376($28)
      1c:	08 c0 02 1c 
      20:	43 00 00 00 	addiu $3,$2,1
      24:	01 00 03 02 
      28:	34 00 00 00 	sw $3,-16376($28)
      2c:	08 c0 03 1c 
      30:	28 00 00 00 	lw $2,-16376($28)
      34:	08 c0 02 1c 
      38:	42 00 00 00 	addu $29,$0,$30
      3c:	00 1d 1e 00 
      40:	28 00 00 00 	lw $30,0($29)
      44:	00 00 1e 1d 
      48:	43 00 00 00 	addiu $29,$29,8
      4c:	08 00 1d 1d 
      50:	03 00 00 00 	jr $31
      54:	00 00 00 1f 

00000058 <init_IT>:
      58:	43 00 00 00 	addiu $29,$29,-32
      5c:	e0 ff 1d 1d 
      60:	34 00 00 00 	sw $31,28($29)
      64:	1c 00 1f 1d 
      68:	34 00 00 00 	sw $30,24($29)
      6c:	18 00 1e 1d 
      70:	42 00 00 00 	addu $30,$0,$29
      74:	00 1e 1d 00 
      78:	43 00 00 00 	addiu $2,$0,256
      7c:	00 01 02 00 
      80:	34 00 00 00 	sw $2,16($30)
      84:	10 00 02 1e 
      88:	28 00 00 00 	lw $4,16($30)
      8c:	10 00 04 1e 
      90:	28 00 00 00 	lw $5,0($28)
      94:	00 00 05 1c 
      98:	43 00 00 00 	addiu $6,$0,300
      9c:	2c 01 06 00 
      a0:	02 00 00 00 	jal 0 <__it_handle>
      a4:	00 00 00 00 
      a8:	42 00 00 00 	addu $29,$0,$30
      ac:	00 1d 1e 00 
      b0:	28 00 00 00 	lw $31,28($29)
      b4:	1c 00 1f 1d 
      b8:	28 00 00 00 	lw $30,24($29)
      bc:	18 00 1e 1d 
      c0:	43 00 00 00 	addiu $29,$29,32
      c4:	20 00 1d 1d 
      c8:	03 00 00 00 	jr $31
      cc:	00 00 00 1f 

000000d0 <swap>:
      d0:	43 00 00 00 	addiu $29,$29,-16
      d4:	f0 ff 1d 1d 
      d8:	34 00 00 00 	sw $30,8($29)
      dc:	08 00 1e 1d 
      e0:	42 00 00 00 	addu $30,$0,$29
      e4:	00 1e 1d 00 
      e8:	34 00 00 00 	sw $4,16($30)
      ec:	10 00 04 1e 
      f0:	34 00 00 00 	sw $5,20($30)
      f4:	14 00 05 1e 
      f8:	34 00 00 00 	sw $6,24($30)
      fc:	18 00 06 1e 
     100:	28 00 00 00 	lw $2,20($30)
     104:	14 00 02 1e 
     108:	42 00 00 00 	addu $3,$0,$2
     10c:	00 03 02 00 
     110:	55 00 00 00 	sll $2,$3,0x2
     114:	02 02 03 00 
     118:	28 00 00 00 	lw $3,16($30)
     11c:	10 00 03 1e 
     120:	42 00 00 00 	addu $2,$2,$3
     124:	00 02 03 02 
     128:	28 00 00 00 	lw $3,0($2)
     12c:	00 00 03 02 
     130:	34 00 00 00 	sw $3,0($30)
     134:	00 00 03 1e 
     138:	28 00 00 00 	lw $2,20($30)
     13c:	14 00 02 1e 
     140:	42 00 00 00 	addu $3,$0,$2
     144:	00 03 02 00 
     148:	55 00 00 00 	sll $2,$3,0x2
     14c:	02 02 03 00 
     150:	28 00 00 00 	lw $3,16($30)
     154:	10 00 03 1e 
     158:	42 00 00 00 	addu $2,$2,$3
     15c:	00 02 03 02 
     160:	28 00 00 00 	lw $3,24($30)
     164:	18 00 03 1e 
     168:	42 00 00 00 	addu $4,$0,$3
     16c:	00 04 03 00 
     170:	55 00 00 00 	sll $3,$4,0x2
     174:	02 03 04 00 
     178:	28 00 00 00 	lw $4,16($30)
     17c:	10 00 04 1e 
     180:	42 00 00 00 	addu $3,$3,$4
     184:	00 03 04 03 
     188:	28 00 00 00 	lw $4,0($3)
     18c:	00 00 04 03 
     190:	34 00 00 00 	sw $4,0($2)
     194:	00 00 04 02 
     198:	28 00 00 00 	lw $2,24($30)
     19c:	18 00 02 1e 
     1a0:	42 00 00 00 	addu $3,$0,$2
     1a4:	00 03 02 00 
     1a8:	55 00 00 00 	sll $2,$3,0x2
     1ac:	02 02 03 00 
     1b0:	28 00 00 00 	lw $3,16($30)
     1b4:	10 00 03 1e 
     1b8:	42 00 00 00 	addu $2,$2,$3
     1bc:	00 02 03 02 
     1c0:	28 00 00 00 	lw $3,0($30)
     1c4:	00 00 03 1e 
     1c8:	34 00 00 00 	sw $3,0($2)
     1cc:	00 00 03 02 
     1d0:	42 00 00 00 	addu $29,$0,$30
     1d4:	00 1d 1e 00 
     1d8:	28 00 00 00 	lw $30,8($29)
     1dc:	08 00 1e 1d 
     1e0:	43 00 00 00 	addiu $29,$29,16
     1e4:	10 00 1d 1d 
     1e8:	03 00 00 00 	jr $31
     1ec:	00 00 00 1f 

000001f0 <quicksort>:
     1f0:	43 00 00 00 	addiu $29,$29,-40
     1f4:	d8 ff 1d 1d 
     1f8:	34 00 00 00 	sw $31,36($29)
     1fc:	24 00 1f 1d 
     200:	34 00 00 00 	sw $30,32($29)
     204:	20 00 1e 1d 
     208:	42 00 00 00 	addu $30,$0,$29
     20c:	00 1e 1d 00 
     210:	34 00 00 00 	sw $4,40($30)
     214:	28 00 04 1e 
     218:	34 00 00 00 	sw $5,44($30)
     21c:	2c 00 05 1e 
     220:	34 00 00 00 	sw $6,48($30)
     224:	30 00 06 1e 
     228:	28 00 00 00 	lw $2,44($30)
     22c:	2c 00 02 1e 
     230:	34 00 00 00 	sw $2,16($30)
     234:	10 00 02 1e 
     238:	28 00 00 00 	lw $2,16($30)
     23c:	10 00 02 1e 
     240:	28 00 00 00 	lw $3,48($30)
     244:	30 00 03 1e 
     248:	5b 00 00 00 	slt $2,$2,$3
     24c:	00 02 03 02 
     250:	06 00 00 00 	bne $2,$0,260 <quicksort+0x70>
     254:	02 00 00 02 
     258:	01 00 00 00 	j 2c8 <quicksort+0xd8>
     25c:	b2 00 00 00 
     260:	28 00 00 00 	lw $2,16($30)
     264:	10 00 02 1e 
     268:	42 00 00 00 	addu $3,$0,$2
     26c:	00 03 02 00 
     270:	55 00 00 00 	sll $2,$3,0x2
     274:	02 02 03 00 
     278:	28 00 00 00 	lw $3,40($30)
     27c:	28 00 03 1e 
     280:	42 00 00 00 	addu $2,$2,$3
     284:	00 02 03 02 
     288:	43 00 00 00 	addiu $4,$28,-16372
     28c:	0c c0 04 1c 
     290:	28 00 00 00 	lw $5,0($2)
     294:	00 00 05 02 
     298:	02 00 00 00 	jal 0 <__it_handle>
     29c:	00 00 00 00 
     2a0:	28 00 00 00 	lw $3,16($30)
     2a4:	10 00 03 1e 
     2a8:	43 00 00 00 	addiu $2,$3,1
     2ac:	01 00 02 03 
     2b0:	42 00 00 00 	addu $3,$0,$2
     2b4:	00 03 02 00 
     2b8:	34 00 00 00 	sw $3,16($30)
     2bc:	10 00 03 1e 
     2c0:	01 00 00 00 	j 238 <quicksort+0x48>
     2c4:	8e 00 00 00 
     2c8:	43 00 00 00 	addiu $4,$28,-16364
     2cc:	14 c0 04 1c 
     2d0:	02 00 00 00 	jal 0 <__it_handle>
     2d4:	00 00 00 00 
     2d8:	28 00 00 00 	lw $2,48($30)
     2dc:	30 00 02 1e 
     2e0:	28 00 00 00 	lw $3,44($30)
     2e4:	2c 00 03 1e 
     2e8:	45 00 00 00 	subu $2,$2,$3
     2ec:	00 02 03 02 
     2f0:	07 00 00 00 	blez $2,510 <quicksort+0x320>
     2f4:	86 00 00 02 
     2f8:	28 00 00 00 	lw $2,44($30)
     2fc:	2c 00 02 1e 
     300:	42 00 00 00 	addu $3,$0,$2
     304:	00 03 02 00 
     308:	55 00 00 00 	sll $2,$3,0x2
     30c:	02 02 03 00 
     310:	28 00 00 00 	lw $3,40($30)
     314:	28 00 03 1e 
     318:	42 00 00 00 	addu $2,$2,$3
     31c:	00 02 03 02 
     320:	28 00 00 00 	lw $3,0($2)
     324:	00 00 03 02 
     328:	34 00 00 00 	sw $3,20($30)
     32c:	14 00 03 1e 
     330:	28 00 00 00 	lw $2,44($30)
     334:	2c 00 02 1e 
     338:	43 00 00 00 	addiu $3,$2,1
     33c:	01 00 03 02 
     340:	34 00 00 00 	sw $3,24($30)
     344:	18 00 03 1e 
     348:	28 00 00 00 	lw $2,48($30)
     34c:	30 00 02 1e 
     350:	34 00 00 00 	sw $2,28($30)
     354:	1c 00 02 1e 
     358:	28 00 00 00 	lw $2,24($30)
     35c:	18 00 02 1e 
     360:	28 00 00 00 	lw $3,28($30)
     364:	1c 00 03 1e 
     368:	5b 00 00 00 	slt $2,$2,$3
     36c:	00 02 03 02 
     370:	06 00 00 00 	bne $2,$0,380 <quicksort+0x190>
     374:	02 00 00 02 
     378:	01 00 00 00 	j 438 <quicksort+0x248>
     37c:	0e 01 00 00 
     380:	28 00 00 00 	lw $2,24($30)
     384:	18 00 02 1e 
     388:	42 00 00 00 	addu $3,$0,$2
     38c:	00 03 02 00 
     390:	55 00 00 00 	sll $2,$3,0x2
     394:	02 02 03 00 
     398:	28 00 00 00 	lw $3,40($30)
     39c:	28 00 03 1e 
     3a0:	42 00 00 00 	addu $2,$2,$3
     3a4:	00 02 03 02 
     3a8:	28 00 00 00 	lw $3,0($2)
     3ac:	00 00 03 02 
     3b0:	28 00 00 00 	lw $2,20($30)
     3b4:	14 00 02 1e 
     3b8:	5b 00 00 00 	slt $3,$2,$3
     3bc:	00 03 03 02 
     3c0:	06 00 00 00 	bne $3,$0,3f0 <quicksort+0x200>
     3c4:	0a 00 00 03 
     3c8:	28 00 00 00 	lw $3,24($30)
     3cc:	18 00 03 1e 
     3d0:	43 00 00 00 	addiu $2,$3,1
     3d4:	01 00 02 03 
     3d8:	42 00 00 00 	addu $3,$0,$2
     3dc:	00 03 02 00 
     3e0:	34 00 00 00 	sw $3,24($30)
     3e4:	18 00 03 1e 
     3e8:	01 00 00 00 	j 430 <quicksort+0x240>
     3ec:	0c 01 00 00 
     3f0:	28 00 00 00 	lw $4,40($30)
     3f4:	28 00 04 1e 
     3f8:	28 00 00 00 	lw $5,24($30)
     3fc:	18 00 05 1e 
     400:	28 00 00 00 	lw $6,28($30)
     404:	1c 00 06 1e 
     408:	02 00 00 00 	jal d0 <swap>
     40c:	34 00 00 00 
     410:	28 00 00 00 	lw $3,28($30)
     414:	1c 00 03 1e 
     418:	43 00 00 00 	addiu $2,$3,-1
     41c:	ff ff 02 03 
     420:	42 00 00 00 	addu $3,$0,$2
     424:	00 03 02 00 
     428:	34 00 00 00 	sw $3,28($30)
     42c:	1c 00 03 1e 
     430:	01 00 00 00 	j 358 <quicksort+0x168>
     434:	d6 00 00 00 
     438:	28 00 00 00 	lw $2,24($30)
     43c:	18 00 02 1e 
     440:	42 00 00 00 	addu $3,$0,$2
     444:	00 03 02 00 
     448:	55 00 00 00 	sll $2,$3,0x2
     44c:	02 02 03 00 
     450:	28 00 00 00 	lw $3,40($30)
     454:	28 00 03 1e 
     458:	42 00 00 00 	addu $2,$2,$3
     45c:	00 02 03 02 
     460:	28 00 00 00 	lw $3,0($2)
     464:	00 00 03 02 
     468:	28 00 00 00 	lw $2,20($30)
     46c:	14 00 02 1e 
     470:	5b 00 00 00 	slt $3,$2,$3
     474:	00 03 03 02 
     478:	05 00 00 00 	beq $3,$0,4a0 <quicksort+0x2b0>
     47c:	08 00 00 03 
     480:	28 00 00 00 	lw $3,24($30)
     484:	18 00 03 1e 
     488:	43 00 00 00 	addiu $2,$3,-1
     48c:	ff ff 02 03 
     490:	42 00 00 00 	addu $3,$0,$2
     494:	00 03 02 00 
     498:	34 00 00 00 	sw $3,24($30)
     49c:	18 00 03 1e 
     4a0:	28 00 00 00 	lw $4,40($30)
     4a4:	28 00 04 1e 
     4a8:	28 00 00 00 	lw $5,44($30)
     4ac:	2c 00 05 1e 
     4b0:	28 00 00 00 	lw $6,24($30)
     4b4:	18 00 06 1e 
     4b8:	02 00 00 00 	jal d0 <swap>
     4bc:	34 00 00 00 
     4c0:	28 00 00 00 	lw $3,24($30)
     4c4:	18 00 03 1e 
     4c8:	43 00 00 00 	addiu $2,$3,-1
     4cc:	ff ff 02 03 
     4d0:	28 00 00 00 	lw $4,40($30)
     4d4:	28 00 04 1e 
     4d8:	28 00 00 00 	lw $5,44($30)
     4dc:	2c 00 05 1e 
     4e0:	42 00 00 00 	addu $6,$0,$2
     4e4:	00 06 02 00 
     4e8:	02 00 00 00 	jal 1f0 <quicksort>
     4ec:	7c 00 00 00 
     4f0:	28 00 00 00 	lw $4,40($30)
     4f4:	28 00 04 1e 
     4f8:	28 00 00 00 	lw $5,28($30)
     4fc:	1c 00 05 1e 
     500:	28 00 00 00 	lw $6,48($30)
     504:	30 00 06 1e 
     508:	02 00 00 00 	jal 1f0 <quicksort>
     50c:	7c 00 00 00 
     510:	42 00 00 00 	addu $29,$0,$30
     514:	00 1d 1e 00 
     518:	28 00 00 00 	lw $31,36($29)
     51c:	24 00 1f 1d 
     520:	28 00 00 00 	lw $30,32($29)
     524:	20 00 1e 1d 
     528:	43 00 00 00 	addiu $29,$29,40
     52c:	28 00 1d 1d 
     530:	03 00 00 00 	jr $31
     534:	00 00 00 1f 

00000538 <intercala>:
     538:	43 00 00 00 	addiu $29,$29,-40
     53c:	d8 ff 1d 1d 
     540:	34 00 00 00 	sw $30,32($29)
     544:	20 00 1e 1d 
     548:	42 00 00 00 	addu $30,$0,$29
     54c:	00 1e 1d 00 
     550:	34 00 00 00 	sw $4,40($30)
     554:	28 00 04 1e 
     558:	34 00 00 00 	sw $5,44($30)
     55c:	2c 00 05 1e 
     560:	34 00 00 00 	sw $6,48($30)
     564:	30 00 06 1e 
     568:	34 00 00 00 	sw $7,52($30)
     56c:	34 00 07 1e 
     570:	42 00 00 00 	addu $5,$0,$29
     574:	00 05 1d 00 
     578:	28 00 00 00 	lw $2,48($30)
     57c:	30 00 02 1e 
     580:	43 00 00 00 	addiu $3,$2,1
     584:	01 00 03 02 
     588:	42 00 00 00 	addu $6,$0,$3
     58c:	00 06 03 00 
     590:	55 00 00 00 	sll $7,$6,0x5
     594:	05 07 06 00 
     598:	42 00 00 00 	addu $3,$0,$7
     59c:	00 03 07 00 
     5a0:	43 00 00 00 	addiu $4,$2,1
     5a4:	01 00 04 02 
     5a8:	42 00 00 00 	addu $6,$0,$4
     5ac:	00 06 04 00 
     5b0:	55 00 00 00 	sll $7,$6,0x2
     5b4:	02 07 06 00 
     5b8:	42 00 00 00 	addu $4,$0,$7
     5bc:	00 04 07 00 
     5c0:	43 00 00 00 	addiu $6,$4,7
     5c4:	07 00 06 04 
     5c8:	43 00 00 00 	addiu $7,$6,7
     5cc:	07 00 07 06 
     5d0:	57 00 00 00 	srl $6,$7,0x3
     5d4:	03 06 07 00 
     5d8:	42 00 00 00 	addu $7,$0,$6
     5dc:	00 07 06 00 
     5e0:	55 00 00 00 	sll $6,$7,0x3
     5e4:	03 06 07 00 
     5e8:	45 00 00 00 	subu $29,$29,$6
     5ec:	00 1d 06 1d 
     5f0:	42 00 00 00 	addu $6,$0,$29
     5f4:	00 06 1d 00 
     5f8:	43 00 00 00 	addiu $7,$6,7
     5fc:	07 00 07 06 
     600:	57 00 00 00 	srl $6,$7,0x3
     604:	03 06 07 00 
     608:	42 00 00 00 	addu $7,$0,$6
     60c:	00 07 06 00 
     610:	55 00 00 00 	sll $6,$7,0x3
     614:	03 06 07 00 
     618:	28 00 00 00 	lw $7,0($29)
     61c:	00 00 07 1d 
     620:	28 00 00 00 	lw $7,40($30)
     624:	28 00 07 1e 
     628:	34 00 00 00 	sw $7,0($30)
     62c:	00 00 07 1e 
     630:	28 00 00 00 	lw $7,44($30)
     634:	2c 00 07 1e 
     638:	34 00 00 00 	sw $7,4($30)
     63c:	04 00 07 1e 
     640:	34 00 00 00 	sw $0,8($30)
     644:	08 00 00 1e 
     648:	28 00 00 00 	lw $7,0($30)
     64c:	00 00 07 1e 
     650:	28 00 00 00 	lw $8,44($30)
     654:	2c 00 08 1e 
     658:	5b 00 00 00 	slt $7,$7,$8
     65c:	00 07 08 07 
     660:	05 00 00 00 	beq $7,$0,690 <intercala+0x158>
     664:	0a 00 00 07 
     668:	28 00 00 00 	lw $7,4($30)
     66c:	04 00 07 1e 
     670:	28 00 00 00 	lw $8,48($30)
     674:	30 00 08 1e 
     678:	5b 00 00 00 	slt $7,$8,$7
     67c:	00 07 07 08 
     680:	05 00 00 00 	beq $7,$0,698 <intercala+0x160>
     684:	04 00 00 07 
     688:	01 00 00 00 	j 690 <intercala+0x158>
     68c:	a4 01 00 00 
     690:	01 00 00 00 	j 7e8 <intercala+0x2b0>
     694:	fa 01 00 00 
     698:	28 00 00 00 	lw $7,0($30)
     69c:	00 00 07 1e 
     6a0:	42 00 00 00 	addu $8,$0,$7
     6a4:	00 08 07 00 
     6a8:	55 00 00 00 	sll $7,$8,0x2
     6ac:	02 07 08 00 
     6b0:	28 00 00 00 	lw $8,52($30)
     6b4:	34 00 08 1e 
     6b8:	42 00 00 00 	addu $7,$7,$8
     6bc:	00 07 08 07 
     6c0:	28 00 00 00 	lw $8,4($30)
     6c4:	04 00 08 1e 
     6c8:	42 00 00 00 	addu $9,$0,$8
     6cc:	00 09 08 00 
     6d0:	55 00 00 00 	sll $8,$9,0x2
     6d4:	02 08 09 00 
     6d8:	28 00 00 00 	lw $9,52($30)
     6dc:	34 00 09 1e 
     6e0:	42 00 00 00 	addu $8,$8,$9
     6e4:	00 08 09 08 
     6e8:	28 00 00 00 	lw $7,0($7)
     6ec:	00 00 07 07 
     6f0:	28 00 00 00 	lw $8,0($8)
     6f4:	00 00 08 08 
     6f8:	5b 00 00 00 	slt $7,$8,$7
     6fc:	00 07 07 08 
     700:	06 00 00 00 	bne $7,$0,778 <intercala+0x240>
     704:	1c 00 00 07 
     708:	28 00 00 00 	lw $7,8($30)
     70c:	08 00 07 1e 
     710:	43 00 00 00 	addiu $8,$7,1
     714:	01 00 08 07 
     718:	34 00 00 00 	sw $8,8($30)
     71c:	08 00 08 1e 
     720:	55 00 00 00 	sll $8,$7,0x2
     724:	02 08 07 00 
     728:	42 00 00 00 	addu $7,$8,$6
     72c:	00 07 06 08 
     730:	28 00 00 00 	lw $8,0($30)
     734:	00 00 08 1e 
     738:	43 00 00 00 	addiu $9,$8,1
     73c:	01 00 09 08 
     740:	34 00 00 00 	sw $9,0($30)
     744:	00 00 09 1e 
     748:	55 00 00 00 	sll $9,$8,0x2
     74c:	02 09 08 00 
     750:	28 00 00 00 	lw $10,52($30)
     754:	34 00 0a 1e 
     758:	42 00 00 00 	addu $8,$9,$10
     75c:	00 08 0a 09 
     760:	28 00 00 00 	lw $9,0($8)
     764:	00 00 09 08 
     768:	34 00 00 00 	sw $9,0($7)
     76c:	00 00 09 07 
     770:	01 00 00 00 	j 7e0 <intercala+0x2a8>
     774:	f8 01 00 00 
     778:	28 00 00 00 	lw $7,8($30)
     77c:	08 00 07 1e 
     780:	43 00 00 00 	addiu $8,$7,1
     784:	01 00 08 07 
     788:	34 00 00 00 	sw $8,8($30)
     78c:	08 00 08 1e 
     790:	55 00 00 00 	sll $8,$7,0x2
     794:	02 08 07 00 
     798:	42 00 00 00 	addu $7,$8,$6
     79c:	00 07 06 08 
     7a0:	28 00 00 00 	lw $8,4($30)
     7a4:	04 00 08 1e 
     7a8:	43 00 00 00 	addiu $9,$8,1
     7ac:	01 00 09 08 
     7b0:	34 00 00 00 	sw $9,4($30)
     7b4:	04 00 09 1e 
     7b8:	55 00 00 00 	sll $9,$8,0x2
     7bc:	02 09 08 00 
     7c0:	28 00 00 00 	lw $10,52($30)
     7c4:	34 00 0a 1e 
     7c8:	42 00 00 00 	addu $8,$9,$10
     7cc:	00 08 0a 09 
     7d0:	28 00 00 00 	lw $9,0($8)
     7d4:	00 00 09 08 
     7d8:	34 00 00 00 	sw $9,0($7)
     7dc:	00 00 09 07 
     7e0:	01 00 00 00 	j 648 <intercala+0x110>
     7e4:	92 01 00 00 
	...
     7f0:	28 00 00 00 	lw $7,0($30)
     7f4:	00 00 07 1e 
     7f8:	28 00 00 00 	lw $8,44($30)
     7fc:	2c 00 08 1e 
     800:	5b 00 00 00 	slt $7,$7,$8
     804:	00 07 08 07 
     808:	06 00 00 00 	bne $7,$0,818 <intercala+0x2e0>
     80c:	02 00 00 07 
     810:	01 00 00 00 	j 888 <intercala+0x350>
     814:	22 02 00 00 
     818:	28 00 00 00 	lw $7,8($30)
     81c:	08 00 07 1e 
     820:	43 00 00 00 	addiu $8,$7,1
     824:	01 00 08 07 
     828:	34 00 00 00 	sw $8,8($30)
     82c:	08 00 08 1e 
     830:	55 00 00 00 	sll $8,$7,0x2
     834:	02 08 07 00 
     838:	42 00 00 00 	addu $7,$8,$6
     83c:	00 07 06 08 
     840:	28 00 00 00 	lw $8,0($30)
     844:	00 00 08 1e 
     848:	43 00 00 00 	addiu $9,$8,1
     84c:	01 00 09 08 
     850:	34 00 00 00 	sw $9,0($30)
     854:	00 00 09 1e 
     858:	55 00 00 00 	sll $9,$8,0x2
     85c:	02 09 08 00 
     860:	28 00 00 00 	lw $10,52($30)
     864:	34 00 0a 1e 
     868:	42 00 00 00 	addu $8,$9,$10
     86c:	00 08 0a 09 
     870:	28 00 00 00 	lw $9,0($8)
     874:	00 00 09 08 
     878:	34 00 00 00 	sw $9,0($7)
     87c:	00 00 09 07 
     880:	01 00 00 00 	j 7f0 <intercala+0x2b8>
     884:	fc 01 00 00 
	...
     890:	28 00 00 00 	lw $7,4($30)
     894:	04 00 07 1e 
     898:	28 00 00 00 	lw $8,48($30)
     89c:	30 00 08 1e 
     8a0:	5b 00 00 00 	slt $7,$8,$7
     8a4:	00 07 07 08 
     8a8:	05 00 00 00 	beq $7,$0,8b8 <intercala+0x380>
     8ac:	02 00 00 07 
     8b0:	01 00 00 00 	j 928 <intercala+0x3f0>
     8b4:	4a 02 00 00 
     8b8:	28 00 00 00 	lw $7,8($30)
     8bc:	08 00 07 1e 
     8c0:	43 00 00 00 	addiu $8,$7,1
     8c4:	01 00 08 07 
     8c8:	34 00 00 00 	sw $8,8($30)
     8cc:	08 00 08 1e 
     8d0:	55 00 00 00 	sll $8,$7,0x2
     8d4:	02 08 07 00 
     8d8:	42 00 00 00 	addu $7,$8,$6
     8dc:	00 07 06 08 
     8e0:	28 00 00 00 	lw $8,4($30)
     8e4:	04 00 08 1e 
     8e8:	43 00 00 00 	addiu $9,$8,1
     8ec:	01 00 09 08 
     8f0:	34 00 00 00 	sw $9,4($30)
     8f4:	04 00 09 1e 
     8f8:	55 00 00 00 	sll $9,$8,0x2
     8fc:	02 09 08 00 
     900:	28 00 00 00 	lw $10,52($30)
     904:	34 00 0a 1e 
     908:	42 00 00 00 	addu $8,$9,$10
     90c:	00 08 0a 09 
     910:	28 00 00 00 	lw $9,0($8)
     914:	00 00 09 08 
     918:	34 00 00 00 	sw $9,0($7)
     91c:	00 00 09 07 
     920:	01 00 00 00 	j 890 <intercala+0x358>
     924:	24 02 00 00 
	...
     930:	28 00 00 00 	lw $7,40($30)
     934:	28 00 07 1e 
     938:	34 00 00 00 	sw $7,0($30)
     93c:	00 00 07 1e 
     940:	28 00 00 00 	lw $7,0($30)
     944:	00 00 07 1e 
     948:	28 00 00 00 	lw $8,48($30)
     94c:	30 00 08 1e 
     950:	5b 00 00 00 	slt $7,$8,$7
     954:	00 07 07 08 
     958:	05 00 00 00 	beq $7,$0,968 <intercala+0x430>
     95c:	02 00 00 07 
     960:	01 00 00 00 	j 9f8 <intercala+0x4c0>
     964:	7e 02 00 00 
     968:	28 00 00 00 	lw $7,0($30)
     96c:	00 00 07 1e 
     970:	42 00 00 00 	addu $8,$0,$7
     974:	00 08 07 00 
     978:	55 00 00 00 	sll $7,$8,0x2
     97c:	02 07 08 00 
     980:	28 00 00 00 	lw $8,52($30)
     984:	34 00 08 1e 
     988:	42 00 00 00 	addu $7,$7,$8
     98c:	00 07 08 07 
     990:	28 00 00 00 	lw $8,0($30)
     994:	00 00 08 1e 
     998:	28 00 00 00 	lw $9,40($30)
     99c:	28 00 09 1e 
     9a0:	45 00 00 00 	subu $8,$8,$9
     9a4:	00 08 09 08 
     9a8:	42 00 00 00 	addu $9,$0,$8
     9ac:	00 09 08 00 
     9b0:	55 00 00 00 	sll $8,$9,0x2
     9b4:	02 08 09 00 
     9b8:	42 00 00 00 	addu $9,$8,$6
     9bc:	00 09 06 08 
     9c0:	28 00 00 00 	lw $8,0($9)
     9c4:	00 00 08 09 
     9c8:	34 00 00 00 	sw $8,0($7)
     9cc:	00 00 08 07 
     9d0:	28 00 00 00 	lw $8,0($30)
     9d4:	00 00 08 1e 
     9d8:	43 00 00 00 	addiu $7,$8,1
     9dc:	01 00 07 08 
     9e0:	42 00 00 00 	addu $8,$0,$7
     9e4:	00 08 07 00 
     9e8:	34 00 00 00 	sw $8,0($30)
     9ec:	00 00 08 1e 
     9f0:	01 00 00 00 	j 940 <intercala+0x408>
     9f4:	50 02 00 00 
     9f8:	42 00 00 00 	addu $29,$0,$5
     9fc:	00 1d 05 00 
     a00:	42 00 00 00 	addu $29,$0,$30
     a04:	00 1d 1e 00 
     a08:	28 00 00 00 	lw $30,32($29)
     a0c:	20 00 1e 1d 
     a10:	43 00 00 00 	addiu $29,$29,40
     a14:	28 00 1d 1d 
     a18:	03 00 00 00 	jr $31
     a1c:	00 00 00 1f 

00000a20 <mergesort>:
     a20:	43 00 00 00 	addiu $29,$29,-32
     a24:	e0 ff 1d 1d 
     a28:	34 00 00 00 	sw $31,28($29)
     a2c:	1c 00 1f 1d 
     a30:	34 00 00 00 	sw $30,24($29)
     a34:	18 00 1e 1d 
     a38:	42 00 00 00 	addu $30,$0,$29
     a3c:	00 1e 1d 00 
     a40:	34 00 00 00 	sw $4,32($30)
     a44:	20 00 04 1e 
     a48:	34 00 00 00 	sw $5,36($30)
     a4c:	24 00 05 1e 
     a50:	34 00 00 00 	sw $6,40($30)
     a54:	28 00 06 1e 
     a58:	28 00 00 00 	lw $2,32($30)
     a5c:	20 00 02 1e 
     a60:	28 00 00 00 	lw $3,36($30)
     a64:	24 00 03 1e 
     a68:	5b 00 00 00 	slt $2,$2,$3
     a6c:	00 02 03 02 
     a70:	05 00 00 00 	beq $2,$0,af0 <mergesort+0xd0>
     a74:	1e 00 00 02 
     a78:	28 00 00 00 	lw $2,32($30)
     a7c:	20 00 02 1e 
     a80:	28 00 00 00 	lw $3,36($30)
     a84:	24 00 03 1e 
     a88:	42 00 00 00 	addu $2,$2,$3
     a8c:	00 02 03 02 
     a90:	59 00 00 00 	sra $3,$2,0x1f
     a94:	1f 03 02 00 
     a98:	57 00 00 00 	srl $4,$3,0x1f
     a9c:	1f 04 03 00 
     aa0:	42 00 00 00 	addu $2,$2,$4
     aa4:	00 02 04 02 
     aa8:	59 00 00 00 	sra $3,$2,0x1
     aac:	01 03 02 00 
     ab0:	34 00 00 00 	sw $3,16($30)
     ab4:	10 00 03 1e 
     ab8:	28 00 00 00 	lw $3,16($30)
     abc:	10 00 03 1e 
     ac0:	43 00 00 00 	addiu $2,$3,1
     ac4:	01 00 02 03 
     ac8:	28 00 00 00 	lw $4,32($30)
     acc:	20 00 04 1e 
     ad0:	42 00 00 00 	addu $5,$0,$2
     ad4:	00 05 02 00 
     ad8:	28 00 00 00 	lw $6,36($30)
     adc:	24 00 06 1e 
     ae0:	28 00 00 00 	lw $7,40($30)
     ae4:	28 00 07 1e 
     ae8:	02 00 00 00 	jal 538 <intercala>
     aec:	4e 01 00 00 
     af0:	42 00 00 00 	addu $29,$0,$30
     af4:	00 1d 1e 00 
     af8:	28 00 00 00 	lw $31,28($29)
     afc:	1c 00 1f 1d 
     b00:	28 00 00 00 	lw $30,24($29)
     b04:	18 00 1e 1d 
     b08:	43 00 00 00 	addiu $29,$29,32
     b0c:	20 00 1d 1d 
     b10:	03 00 00 00 	jr $31
     b14:	00 00 00 1f 

00000b18 <main>:
     b18:	43 00 00 00 	addiu $29,$29,-88
     b1c:	a8 ff 1d 1d 
     b20:	34 00 00 00 	sw $31,84($29)
     b24:	54 00 1f 1d 
     b28:	34 00 00 00 	sw $30,80($29)
     b2c:	50 00 1e 1d 
     b30:	34 00 00 00 	sw $23,76($29)
     b34:	4c 00 17 1d 
     b38:	34 00 00 00 	sw $22,72($29)
     b3c:	48 00 16 1d 
     b40:	34 00 00 00 	sw $21,68($29)
     b44:	44 00 15 1d 
     b48:	34 00 00 00 	sw $20,64($29)
     b4c:	40 00 14 1d 
     b50:	34 00 00 00 	sw $19,60($29)
     b54:	3c 00 13 1d 
     b58:	34 00 00 00 	sw $18,56($29)
     b5c:	38 00 12 1d 
     b60:	34 00 00 00 	sw $17,52($29)
     b64:	34 00 11 1d 
     b68:	34 00 00 00 	sw $16,48($29)
     b6c:	30 00 10 1d 
     b70:	42 00 00 00 	addu $30,$0,$29
     b74:	00 1e 1d 00 
     b78:	02 00 00 00 	jal 0 <__it_handle>
     b7c:	00 00 00 00 
     b80:	42 00 00 00 	addu $22,$0,$29
     b84:	00 16 1d 00 
     b88:	28 00 00 00 	lw $2,-16380($28)
     b8c:	04 c0 02 1c 
     b90:	43 00 00 00 	addiu $16,$2,-1
     b94:	ff ff 10 02 
     b98:	43 00 00 00 	addiu $17,$16,1
     b9c:	01 00 11 10 
     ba0:	42 00 00 00 	addu $2,$0,$17
     ba4:	00 02 11 00 
     ba8:	55 00 00 00 	sll $3,$2,0x5
     bac:	05 03 02 00 
     bb0:	42 00 00 00 	addu $17,$0,$3
     bb4:	00 11 03 00 
     bb8:	43 00 00 00 	addiu $18,$16,1
     bbc:	01 00 12 10 
     bc0:	42 00 00 00 	addu $2,$0,$18
     bc4:	00 02 12 00 
     bc8:	55 00 00 00 	sll $3,$2,0x2
     bcc:	02 03 02 00 
     bd0:	42 00 00 00 	addu $18,$0,$3
     bd4:	00 12 03 00 
     bd8:	43 00 00 00 	addiu $2,$18,7
     bdc:	07 00 02 12 
     be0:	43 00 00 00 	addiu $3,$2,7
     be4:	07 00 03 02 
     be8:	57 00 00 00 	srl $2,$3,0x3
     bec:	03 02 03 00 
     bf0:	42 00 00 00 	addu $3,$0,$2
     bf4:	00 03 02 00 
     bf8:	55 00 00 00 	sll $2,$3,0x3
     bfc:	03 02 03 00 
     c00:	45 00 00 00 	subu $29,$29,$2
     c04:	00 1d 02 1d 
     c08:	43 00 00 00 	addiu $2,$29,16
     c0c:	10 00 02 1d 
     c10:	43 00 00 00 	addiu $3,$2,7
     c14:	07 00 03 02 
     c18:	57 00 00 00 	srl $2,$3,0x3
     c1c:	03 02 03 00 
     c20:	42 00 00 00 	addu $3,$0,$2
     c24:	00 03 02 00 
     c28:	55 00 00 00 	sll $23,$3,0x3
     c2c:	03 17 03 00 
     c30:	28 00 00 00 	lw $2,0($29)
     c34:	00 00 02 1d 
     c38:	28 00 00 00 	lw $2,-16380($28)
     c3c:	04 c0 02 1c 
     c40:	43 00 00 00 	addiu $19,$2,-1
     c44:	ff ff 13 02 
     c48:	43 00 00 00 	addiu $20,$19,1
     c4c:	01 00 14 13 
     c50:	42 00 00 00 	addu $2,$0,$20
     c54:	00 02 14 00 
     c58:	55 00 00 00 	sll $3,$2,0x5
     c5c:	05 03 02 00 
     c60:	42 00 00 00 	addu $20,$0,$3
     c64:	00 14 03 00 
     c68:	43 00 00 00 	addiu $21,$19,1
     c6c:	01 00 15 13 
     c70:	42 00 00 00 	addu $2,$0,$21
     c74:	00 02 15 00 
     c78:	55 00 00 00 	sll $3,$2,0x2
     c7c:	02 03 02 00 
     c80:	42 00 00 00 	addu $21,$0,$3
     c84:	00 15 03 00 
     c88:	43 00 00 00 	addiu $2,$21,7
     c8c:	07 00 02 15 
     c90:	43 00 00 00 	addiu $3,$2,7
     c94:	07 00 03 02 
     c98:	57 00 00 00 	srl $2,$3,0x3
     c9c:	03 02 03 00 
     ca0:	42 00 00 00 	addu $3,$0,$2
     ca4:	00 03 02 00 
     ca8:	55 00 00 00 	sll $2,$3,0x3
     cac:	03 02 03 00 
     cb0:	45 00 00 00 	subu $29,$29,$2
     cb4:	00 1d 02 1d 
     cb8:	43 00 00 00 	addiu $2,$29,16
     cbc:	10 00 02 1d 
     cc0:	43 00 00 00 	addiu $3,$2,7
     cc4:	07 00 03 02 
     cc8:	57 00 00 00 	srl $2,$3,0x3
     ccc:	03 02 03 00 
     cd0:	42 00 00 00 	addu $3,$0,$2
     cd4:	00 03 02 00 
     cd8:	55 00 00 00 	sll $7,$3,0x3
     cdc:	03 07 03 00 
     ce0:	34 00 00 00 	sw $7,40($30)
     ce4:	28 00 07 1e 
     ce8:	28 00 00 00 	lw $2,0($29)
     cec:	00 00 02 1d 
     cf0:	43 00 00 00 	addiu $2,$0,10
     cf4:	0a 00 02 00 
     cf8:	34 00 00 00 	sw $2,36($30)
     cfc:	24 00 02 1e 
     d00:	a2 00 00 00 	lui $4,0
     d04:	00 00 04 00 
     d08:	43 00 00 00 	addiu $4,$4,4320
     d0c:	e0 10 04 04 
     d10:	42 00 00 00 	addu $5,$0,$23
     d14:	00 05 17 00 
     d18:	28 00 00 00 	lw $6,-16376($28)
     d1c:	08 c0 06 1c 
     d20:	02 00 00 00 	jal 0 <__it_handle>
     d24:	00 00 00 00 
     d28:	a2 00 00 00 	lui $2,36864
     d2c:	00 90 02 00 
     d30:	34 00 00 00 	sw $2,16($30)
     d34:	10 00 02 1e 
     d38:	28 00 00 00 	lw $2,16($30)
     d3c:	10 00 02 1e 
     d40:	a2 00 00 00 	lui $3,32768
     d44:	00 80 03 00 
     d48:	34 00 00 00 	sw $3,0($2)
     d4c:	00 00 03 02 
     d50:	28 00 00 00 	lw $3,16($30)
     d54:	10 00 03 1e 
     d58:	43 00 00 00 	addiu $2,$3,4
     d5c:	04 00 02 03 
     d60:	43 00 00 00 	addiu $3,$0,4
     d64:	04 00 03 00 
     d68:	34 00 00 00 	sw $3,0($2)
     d6c:	00 00 03 02 
     d70:	28 00 00 00 	lw $3,16($30)
     d74:	10 00 03 1e 
     d78:	43 00 00 00 	addiu $2,$3,8
     d7c:	08 00 02 03 
     d80:	28 00 00 00 	lw $3,36($30)
     d84:	24 00 03 1e 
     d88:	34 00 00 00 	sw $3,0($2)
     d8c:	00 00 03 02 
     d90:	28 00 00 00 	lw $3,16($30)
     d94:	10 00 03 1e 
     d98:	43 00 00 00 	addiu $2,$3,12
     d9c:	0c 00 02 03 
     da0:	34 00 00 00 	sw $0,0($2)
     da4:	00 00 00 02 
     da8:	28 00 00 00 	lw $3,16($30)
     dac:	10 00 03 1e 
     db0:	43 00 00 00 	addiu $2,$3,16
     db4:	10 00 02 03 
     db8:	28 00 00 00 	lw $3,-16384($28)
     dbc:	00 c0 03 1c 
     dc0:	34 00 00 00 	sw $3,0($2)
     dc4:	00 00 03 02 
     dc8:	28 00 00 00 	lw $3,16($30)
     dcc:	10 00 03 1e 
     dd0:	43 00 00 00 	addiu $2,$3,20
     dd4:	14 00 02 03 
     dd8:	34 00 00 00 	sw $23,0($2)
     ddc:	00 00 17 02 
     de0:	28 00 00 00 	lw $3,16($30)
     de4:	10 00 03 1e 
     de8:	43 00 00 00 	addiu $2,$3,24
     dec:	18 00 02 03 
     df0:	43 00 00 00 	addiu $3,$0,1
     df4:	01 00 03 00 
     df8:	34 00 00 00 	sw $3,0($2)
     dfc:	00 00 03 02 
     e00:	a2 00 00 00 	lui $2,36864
     e04:	00 90 02 00 
     e08:	51 00 00 00 	ori $2,$2,4096
     e0c:	00 10 02 02 
     e10:	34 00 00 00 	sw $2,16($30)
     e14:	10 00 02 1e 
     e18:	28 00 00 00 	lw $2,16($30)
     e1c:	10 00 02 1e 
     e20:	28 00 00 00 	lw $3,-16384($28)
     e24:	00 c0 03 1c 
     e28:	34 00 00 00 	sw $3,0($2)
     e2c:	00 00 03 02 
     e30:	28 00 00 00 	lw $2,-16376($28)
     e34:	08 c0 02 1c 
     e38:	05 00 00 00 	beq $2,$0,e48 <main+0x330>
     e3c:	02 00 00 02 
     e40:	01 00 00 00 	j e50 <main+0x338>
     e44:	94 03 00 00 
     e48:	01 00 00 00 	j e30 <main+0x318>
     e4c:	8c 03 00 00 
     e50:	a2 00 00 00 	lui $2,36864
     e54:	00 90 02 00 
     e58:	34 00 00 00 	sw $2,16($30)
     e5c:	10 00 02 1e 
     e60:	28 00 00 00 	lw $2,16($30)
     e64:	10 00 02 1e 
     e68:	28 00 00 00 	lw $3,36($30)
     e6c:	24 00 03 1e 
     e70:	42 00 00 00 	addu $4,$0,$3
     e74:	00 04 03 00 
     e78:	55 00 00 00 	sll $3,$4,0x2
     e7c:	02 03 04 00 
     e80:	a2 00 00 00 	lui $4,32768
     e84:	00 80 04 00 
     e88:	42 00 00 00 	addu $3,$3,$4
     e8c:	00 03 04 03 
     e90:	34 00 00 00 	sw $3,0($2)
     e94:	00 00 03 02 
     e98:	28 00 00 00 	lw $3,16($30)
     e9c:	10 00 03 1e 
     ea0:	43 00 00 00 	addiu $2,$3,4
     ea4:	04 00 02 03 
     ea8:	43 00 00 00 	addiu $3,$0,4
     eac:	04 00 03 00 
     eb0:	34 00 00 00 	sw $3,0($2)
     eb4:	00 00 03 02 
     eb8:	28 00 00 00 	lw $3,16($30)
     ebc:	10 00 03 1e 
     ec0:	43 00 00 00 	addiu $2,$3,8
     ec4:	08 00 02 03 
     ec8:	28 00 00 00 	lw $3,36($30)
     ecc:	24 00 03 1e 
     ed0:	34 00 00 00 	sw $3,0($2)
     ed4:	00 00 03 02 
     ed8:	28 00 00 00 	lw $3,16($30)
     edc:	10 00 03 1e 
     ee0:	43 00 00 00 	addiu $2,$3,12
     ee4:	0c 00 02 03 
     ee8:	34 00 00 00 	sw $0,0($2)
     eec:	00 00 00 02 
     ef0:	28 00 00 00 	lw $3,16($30)
     ef4:	10 00 03 1e 
     ef8:	43 00 00 00 	addiu $2,$3,16
     efc:	10 00 02 03 
     f00:	28 00 00 00 	lw $3,-16384($28)
     f04:	00 c0 03 1c 
     f08:	34 00 00 00 	sw $3,0($2)
     f0c:	00 00 03 02 
     f10:	28 00 00 00 	lw $3,16($30)
     f14:	10 00 03 1e 
     f18:	43 00 00 00 	addiu $2,$3,20
     f1c:	14 00 02 03 
     f20:	28 00 00 00 	lw $3,36($30)
     f24:	24 00 03 1e 
     f28:	42 00 00 00 	addu $4,$0,$3
     f2c:	00 04 03 00 
     f30:	55 00 00 00 	sll $3,$4,0x4
     f34:	04 03 04 00 
     f38:	42 00 00 00 	addu $4,$23,$3
     f3c:	00 04 03 17 
     f40:	34 00 00 00 	sw $4,0($2)
     f44:	00 00 04 02 
     f48:	28 00 00 00 	lw $3,16($30)
     f4c:	10 00 03 1e 
     f50:	43 00 00 00 	addiu $2,$3,24
     f54:	18 00 02 03 
     f58:	43 00 00 00 	addiu $3,$0,1
     f5c:	01 00 03 00 
     f60:	34 00 00 00 	sw $3,0($2)
     f64:	00 00 03 02 
     f68:	a2 00 00 00 	lui $2,36864
     f6c:	00 90 02 00 
     f70:	51 00 00 00 	ori $2,$2,4096
     f74:	00 10 02 02 
     f78:	34 00 00 00 	sw $2,16($30)
     f7c:	10 00 02 1e 
     f80:	28 00 00 00 	lw $2,16($30)
     f84:	10 00 02 1e 
     f88:	28 00 00 00 	lw $3,-16384($28)
     f8c:	00 c0 03 1c 
     f90:	34 00 00 00 	sw $3,0($2)
     f94:	00 00 03 02 
     f98:	28 00 00 00 	lw $2,-16376($28)
     f9c:	08 c0 02 1c 
     fa0:	07 00 00 00 	blez $2,fb0 <main+0x498>
     fa4:	02 00 00 02 
     fa8:	01 00 00 00 	j fb8 <main+0x4a0>
     fac:	ee 03 00 00 
     fb0:	01 00 00 00 	j f98 <main+0x480>
     fb4:	e6 03 00 00 
	...
     fc0:	34 00 00 00 	sw $0,28($30)
     fc4:	1c 00 00 1e 
     fc8:	28 00 00 00 	lw $2,28($30)
     fcc:	1c 00 02 1e 
     fd0:	28 00 00 00 	lw $3,-16380($28)
     fd4:	04 c0 03 1c 
     fd8:	5b 00 00 00 	slt $2,$2,$3
     fdc:	00 02 03 02 
     fe0:	06 00 00 00 	bne $2,$0,ff0 <main+0x4d8>
     fe4:	02 00 00 02 
     fe8:	01 00 00 00 	j 1048 <main+0x530>
     fec:	12 04 00 00 
     ff0:	28 00 00 00 	lw $2,28($30)
     ff4:	1c 00 02 1e 
     ff8:	42 00 00 00 	addu $3,$0,$2
     ffc:	00 03 02 00 
    1000:	55 00 00 00 	sll $2,$3,0x2
    1004:	02 02 03 00 
    1008:	42 00 00 00 	addu $3,$2,$23
    100c:	00 03 17 02 
    1010:	43 00 00 00 	addiu $4,$28,-16360
    1014:	18 c0 04 1c 
    1018:	28 00 00 00 	lw $5,0($3)
    101c:	00 00 05 03 
    1020:	02 00 00 00 	jal 0 <__it_handle>
    1024:	00 00 00 00 
    1028:	28 00 00 00 	lw $2,28($30)
    102c:	1c 00 02 1e 
    1030:	43 00 00 00 	addiu $3,$2,1
    1034:	01 00 03 02 
    1038:	34 00 00 00 	sw $3,28($30)
    103c:	1c 00 03 1e 
    1040:	01 00 00 00 	j fc8 <main+0x4b0>
    1044:	f2 03 00 00 
    1048:	a2 00 00 00 	lui $4,0
    104c:	00 00 04 00 
    1050:	43 00 00 00 	addiu $4,$4,4356
    1054:	04 11 04 04 
    1058:	02 00 00 00 	jal 0 <__it_handle>
    105c:	00 00 00 00 
    1060:	42 00 00 00 	addu $29,$0,$22
    1064:	00 1d 16 00 
    1068:	42 00 00 00 	addu $2,$0,$0
    106c:	00 02 00 00 
    1070:	01 00 00 00 	j 1078 <main+0x560>
    1074:	1e 04 00 00 
    1078:	42 00 00 00 	addu $29,$0,$30
    107c:	00 1d 1e 00 
    1080:	28 00 00 00 	lw $31,84($29)
    1084:	54 00 1f 1d 
    1088:	28 00 00 00 	lw $30,80($29)
    108c:	50 00 1e 1d 
    1090:	28 00 00 00 	lw $23,76($29)
    1094:	4c 00 17 1d 
    1098:	28 00 00 00 	lw $22,72($29)
    109c:	48 00 16 1d 
    10a0:	28 00 00 00 	lw $21,68($29)
    10a4:	44 00 15 1d 
    10a8:	28 00 00 00 	lw $20,64($29)
    10ac:	40 00 14 1d 
    10b0:	28 00 00 00 	lw $19,60($29)
    10b4:	3c 00 13 1d 
    10b8:	28 00 00 00 	lw $18,56($29)
    10bc:	38 00 12 1d 
    10c0:	28 00 00 00 	lw $17,52($29)
    10c4:	34 00 11 1d 
    10c8:	28 00 00 00 	lw $16,48($29)
    10cc:	30 00 10 1d 
    10d0:	43 00 00 00 	addiu $29,$29,88
    10d4:	58 00 1d 1d 
    10d8:	03 00 00 00 	jr $31
    10dc:	00 00 00 1f 
